
/home/julam5/Desktop/lab2/lab2_mem_time.axf:     file format elf32-littlearm


Disassembly of section .text:

00000000 <__cs3_interrupt_vector>:
       0:	18 f0 9f e5 18 f0 9f e5 18 f0 9f e5 18 f0 9f e5     ................
      10:	18 f0 9f e5 18 f0 9f e5 18 f0 9f e5 18 f0 9f e5     ................
      20:	40 00 00 00 54 b6 00 00 58 b6 00 00 5c b6 00 00     @...T...X...\...
      30:	60 b6 00 00 50 b6 00 00 64 b6 00 00 68 b6 00 00     `...P...d...h...

00000040 <__cs3_reset>:
      40:	ea000024 	b	d8 <__cs3_start_asm_sim>

00000044 <__cs3_start_c>:
      44:	e59f8084 	ldr	r8, [pc, #132]	; d0 <__cs3_start_c+0x8c>
      48:	e3580000 	cmp	r8, #0
      4c:	e92d4080 	push	{r7, lr}
      50:	e2488001 	sub	r8, r8, #1
      54:	0a00001c 	beq	cc <__cs3_start_c+0x88>
      58:	e59f7074 	ldr	r7, [pc, #116]	; d4 <__cs3_start_c+0x90>
      5c:	e3a00000 	mov	r0, #0
      60:	e3a01000 	mov	r1, #0
      64:	e2475010 	sub	r5, r7, #16
      68:	e8951020 	ldm	r5, {r5, r12}
      6c:	e5176008 	ldr	r6, [r7, #-8]
      70:	e155000c 	cmp	r5, r12
      74:	008cc006 	addeq	r12, r12, r6
      78:	0a000007 	beq	9c <__cs3_start_c+0x58>
      7c:	e3560000 	cmp	r6, #0
      80:	0a000005 	beq	9c <__cs3_start_c+0x58>
      84:	e1a0e005 	mov	lr, r5
      88:	e8be000c 	ldm	lr!, {r2, r3}
      8c:	e065400e 	rsb	r4, r5, lr
      90:	e1560004 	cmp	r6, r4
      94:	e8ac000c 	stmia	r12!, {r2, r3}
      98:	1afffffa 	bne	88 <__cs3_start_c+0x44>
      9c:	e517e004 	ldr	lr, [r7, #-4]
      a0:	e35e0000 	cmp	lr, #0
      a4:	11a0300c 	movne	r3, r12
      a8:	0a000003 	beq	bc <__cs3_start_c+0x78>
      ac:	e8a30003 	stmia	r3!, {r0, r1}
      b0:	e06c2003 	rsb	r2, r12, r3
      b4:	e15e0002 	cmp	lr, r2
      b8:	1afffffb 	bne	ac <__cs3_start_c+0x68>
      bc:	e2488001 	sub	r8, r8, #1
      c0:	e3780001 	cmn	r8, #1
      c4:	e2877014 	add	r7, r7, #20
      c8:	1affffe5 	bne	64 <__cs3_start_c+0x20>
      cc:	eb002bae 	bl	af8c <__cs3_premain>
      d0:	00000001 	.word	0x00000001
      d4:	0000bb30 	.word	0x0000bb30

000000d8 <__cs3_start_asm_sim>:
      d8:	e28f103c 	add	r1, pc, #60	; 0x3c
      dc:	e3a00016 	mov	r0, #22
      e0:	ef123456 	svc	0x00123456
      e4:	e3500000 	cmp	r0, #0
      e8:	ba000008 	blt	110 <__cs3_region_zero_size_ram>
      ec:	e59f2028 	ldr	r2, [pc, #40]	; 11c <__cs3_heap_start_ptr>
      f0:	e59fd01c 	ldr	sp, [pc, #28]	; 114 <__cs3_region_zero_size_ram+0x4>
      f4:	e5920008 	ldr	r0, [r2, #8]
      f8:	e3500000 	cmp	r0, #0
      fc:	11a0d000 	movne	sp, r0
     100:	e59f1010 	ldr	r1, [pc, #16]	; 118 <__cs3_region_zero_size_ram+0x8>
     104:	e5920004 	ldr	r0, [r2, #4]
     108:	e3500000 	cmp	r0, #0
     10c:	15810000 	strne	r0, [r1]
     110:	eaffffcb 	b	44 <__cs3_start_c>
     114:	3ffffffc 	.word	0x3ffffffc
     118:	0000c3fc 	.word	0x0000c3fc

0000011c <__cs3_heap_start_ptr>:
     11c:	0000c518 	.word	0x0000c518

00000120 <_start>:
     120:	e51fd000 	ldr	sp, [pc, #-0]	; 128 <_start+0x8>
     124:	eaffffc6 	b	44 <__cs3_start_c>
     128:	3ffffffc 	.word	0x3ffffffc

0000012c <deregister_tm_clones>:
     12c:	e92d4008 	push	{r3, lr}
     130:	e59f002c 	ldr	r0, [pc, #44]	; 164 <deregister_tm_clones+0x38>
     134:	e59f302c 	ldr	r3, [pc, #44]	; 168 <deregister_tm_clones+0x3c>
     138:	e0603003 	rsb	r3, r0, r3
     13c:	e3530006 	cmp	r3, #6
     140:	8a000001 	bhi	14c <deregister_tm_clones+0x20>
     144:	e8bd4008 	pop	{r3, lr}
     148:	e12fff1e 	bx	lr
     14c:	e59f3018 	ldr	r3, [pc, #24]	; 16c <deregister_tm_clones+0x40>
     150:	e3530000 	cmp	r3, #0
     154:	0afffffa 	beq	144 <deregister_tm_clones+0x18>
     158:	e1a0e00f 	mov	lr, pc
     15c:	e12fff13 	bx	r3
     160:	eafffff7 	b	144 <deregister_tm_clones+0x18>
     164:	0000c408 	.word	0x0000c408
     168:	0000c40b 	.word	0x0000c40b
     16c:	00000000 	.word	0x00000000

00000170 <register_tm_clones>:
     170:	e92d4008 	push	{r3, lr}
     174:	e59f0034 	ldr	r0, [pc, #52]	; 1b0 <register_tm_clones+0x40>
     178:	e59f3034 	ldr	r3, [pc, #52]	; 1b4 <register_tm_clones+0x44>
     17c:	e0603003 	rsb	r3, r0, r3
     180:	e1a03143 	asr	r3, r3, #2
     184:	e0833fa3 	add	r3, r3, r3, lsr #31
     188:	e1b010c3 	asrs	r1, r3, #1
     18c:	1a000001 	bne	198 <register_tm_clones+0x28>
     190:	e8bd4008 	pop	{r3, lr}
     194:	e12fff1e 	bx	lr
     198:	e59f2018 	ldr	r2, [pc, #24]	; 1b8 <register_tm_clones+0x48>
     19c:	e3520000 	cmp	r2, #0
     1a0:	0afffffa 	beq	190 <register_tm_clones+0x20>
     1a4:	e1a0e00f 	mov	lr, pc
     1a8:	e12fff12 	bx	r2
     1ac:	eafffff7 	b	190 <register_tm_clones+0x20>
     1b0:	0000c408 	.word	0x0000c408
     1b4:	0000c408 	.word	0x0000c408
     1b8:	00000000 	.word	0x00000000

000001bc <__do_global_dtors_aux>:
     1bc:	e92d4010 	push	{r4, lr}
     1c0:	e59f402c 	ldr	r4, [pc, #44]	; 1f4 <__do_global_dtors_aux+0x38>
     1c4:	e5d43000 	ldrb	r3, [r4]
     1c8:	e3530000 	cmp	r3, #0
     1cc:	1a000006 	bne	1ec <__do_global_dtors_aux+0x30>
     1d0:	ebffffd5 	bl	12c <deregister_tm_clones>
     1d4:	e59f301c 	ldr	r3, [pc, #28]	; 1f8 <__do_global_dtors_aux+0x3c>
     1d8:	e3530000 	cmp	r3, #0
     1dc:	159f0018 	ldrne	r0, [pc, #24]	; 1fc <__do_global_dtors_aux+0x40>
     1e0:	1320f000 	nopne	{0}
     1e4:	e3a03001 	mov	r3, #1
     1e8:	e5c43000 	strb	r3, [r4]
     1ec:	e8bd4010 	pop	{r4, lr}
     1f0:	e12fff1e 	bx	lr
     1f4:	0000c408 	.word	0x0000c408
     1f8:	00000000 	.word	0x00000000
     1fc:	0000b704 	.word	0x0000b704

00000200 <frame_dummy>:
     200:	e92d4008 	push	{r3, lr}
     204:	e59f3034 	ldr	r3, [pc, #52]	; 240 <frame_dummy+0x40>
     208:	e3530000 	cmp	r3, #0
     20c:	159f0030 	ldrne	r0, [pc, #48]	; 244 <frame_dummy+0x44>
     210:	159f1030 	ldrne	r1, [pc, #48]	; 248 <frame_dummy+0x48>
     214:	1320f000 	nopne	{0}
     218:	e59f002c 	ldr	r0, [pc, #44]	; 24c <frame_dummy+0x4c>
     21c:	e5903000 	ldr	r3, [r0]
     220:	e3530000 	cmp	r3, #0
     224:	0a000003 	beq	238 <frame_dummy+0x38>
     228:	e59f3020 	ldr	r3, [pc, #32]	; 250 <frame_dummy+0x50>
     22c:	e3530000 	cmp	r3, #0
     230:	11a0e00f 	movne	lr, pc
     234:	112fff13 	bxne	r3
     238:	e8bd4008 	pop	{r3, lr}
     23c:	eaffffcb 	b	170 <register_tm_clones>
     240:	00000000 	.word	0x00000000
     244:	0000b704 	.word	0x0000b704
     248:	0000c40c 	.word	0x0000c40c
     24c:	0000bb30 	.word	0x0000bb30
     250:	00000000 	.word	0x00000000

00000254 <main>:
asm volatile ("MCR p15, 0, %0, c9, c12, 3\t\n" :: "r"(0x8000000f));
}


int main(void)
{
     254:	e92d4ff0 	push	{r4, r5, r6, r7, r8, r9, r10, r11, lr}
     258:	e24ddf45 	sub	sp, sp, #276	; 0x114
  volatile unsigned int* hps_chip	= (int *) 0xFFFF0000;
  volatile unsigned int* hps_sdram	= (int *) 0x10000000; 


  int fakeCounter = 0;
  char input[12] = "";
     25c:	e3a01000 	mov	r1, #0
     260:	e58d1104 	str	r1, [sp, #260]	; 0x104
     264:	e58d1108 	str	r1, [sp, #264]	; 0x108
     268:	e58d110c 	str	r1, [sp, #268]	; 0x10c
  char dummy[256] = "";
     26c:	e58d1004 	str	r1, [sp, #4]
     270:	e28d0008 	add	r0, sp, #8
     274:	e3a020fc 	mov	r2, #252	; 0xfc
     278:	eb00046d 	bl	1434 <memset>


  while(1)
  {
    while(1){
      printf("FPGA On-Chip:    1\n");
     27c:	e30ba710 	movw	r10, #46864	; 0xb710
     280:	e340a000 	movt	r10, #0
      printf("FPGA SDRAM:      2\n");
     284:	e30b9724 	movw	r9, #46884	; 0xb724
     288:	e3409000 	movt	r9, #0
      printf("HPS On-Chip:     3\n");
     28c:	e30b8738 	movw	r8, #46904	; 0xb738
     290:	e3408000 	movt	r8, #0
      printf("HPS DDR3 SDRAM:  4\n");
     294:	e30b774c 	movw	r7, #46924	; 0xb74c
     298:	e3407000 	movt	r7, #0
      printf("To Exit type:    0\n");
     29c:	e30b6760 	movw	r6, #46944	; 0xb760
     2a0:	e3406000 	movt	r6, #0
      printf("Choose chip to write to: ");
     2a4:	e30b5774 	movw	r5, #46964	; 0xb774
     2a8:	e3405000 	movt	r5, #0


  while(1)
  {
    while(1){
      printf("FPGA On-Chip:    1\n");
     2ac:	e1a0000a 	mov	r0, r10
     2b0:	eb0004e0 	bl	1638 <puts>
      printf("FPGA SDRAM:      2\n");
     2b4:	e1a00009 	mov	r0, r9
     2b8:	eb0004de 	bl	1638 <puts>
      printf("HPS On-Chip:     3\n");
     2bc:	e1a00008 	mov	r0, r8
     2c0:	eb0004dc 	bl	1638 <puts>
      printf("HPS DDR3 SDRAM:  4\n");
     2c4:	e1a00007 	mov	r0, r7
     2c8:	eb0004da 	bl	1638 <puts>
      printf("To Exit type:    0\n");
     2cc:	e1a00006 	mov	r0, r6
     2d0:	eb0004d8 	bl	1638 <puts>
      printf("Choose chip to write to: ");
     2d4:	e1a00005 	mov	r0, r5
     2d8:	eb0004a1 	bl	1564 <printf>
      fgets(input, sizeof(input), stdin);
     2dc:	e30bbb38 	movw	r11, #47928	; 0xbb38
     2e0:	e340b000 	movt	r11, #0
     2e4:	e59b3000 	ldr	r3, [r11]
     2e8:	e28d0f41 	add	r0, sp, #260	; 0x104
     2ec:	e3a0100c 	mov	r1, #12
     2f0:	e5932004 	ldr	r2, [r3, #4]
     2f4:	eb0000df 	bl	678 <fgets>
      fgets(dummy, sizeof(dummy), stdin); // empty leftovers in stdin
     2f8:	e59b3000 	ldr	r3, [r11]
     2fc:	e28d0004 	add	r0, sp, #4
     300:	e3a01c01 	mov	r1, #256	; 0x100
     304:	e5932004 	ldr	r2, [r3, #4]
     308:	eb0000da 	bl	678 <fgets>
      
      if ( (strlen(input) != 2) || (atoi(input) < 0) || (atoi(input) > 4) ) {
     30c:	e28d0f41 	add	r0, sp, #260	; 0x104
     310:	eb000597 	bl	1974 <strlen>
     314:	e3500002 	cmp	r0, #2
     318:	1a000007 	bne	33c <main+0xe8>
     31c:	e28d0f41 	add	r0, sp, #260	; 0x104
     320:	eb000077 	bl	504 <atoi>
     324:	e3500000 	cmp	r0, #0
     328:	ba000003 	blt	33c <main+0xe8>
     32c:	e28d0f41 	add	r0, sp, #260	; 0x104
     330:	eb000073 	bl	504 <atoi>
     334:	e3500004 	cmp	r0, #4
     338:	da000005 	ble	354 <main+0x100>
            printf("Not valid.\n\n");
     33c:	e30b0790 	movw	r0, #46992	; 0xb790
     340:	e3400000 	movt	r0, #0
     344:	eb0004bb 	bl	1638 <puts>
            input[0] = '\0';
     348:	e3a03000 	mov	r3, #0
     34c:	e5cd3104 	strb	r3, [sp, #260]	; 0x104
      else{
         chip_selected = atoi(input);
         break;
      }// valid input

    }// while 1 choosing chip
     350:	eaffffd5 	b	2ac <main+0x58>
            printf("Not valid.\n\n");
            input[0] = '\0';
      }// not valid input

      else{
         chip_selected = atoi(input);
     354:	e28d0f41 	add	r0, sp, #260	; 0x104
     358:	eb000069 	bl	504 <atoi>
    }// while 1 choosing chip
    
    //printf("CS: %i\n\n", chip_selected);
    
///////////////////////////////////////////
   if(chip_selected == 0){
     35c:	e250b000 	subs	r11, r0, #0
     360:	0a000056 	beq	4c0 <main+0x26c>
	printf("Bye!\n");
	break;
   }

   switch(chip_selected){
     364:	e24b3001 	sub	r3, r11, #1
     368:	e3530003 	cmp	r3, #3
     36c:	979ff103 	ldrls	pc, [pc, r3, lsl #2]
     370:	ea00000b 	b	3a4 <main+0x150>
     374:	000003a0 	.word	0x000003a0
     378:	00000384 	.word	0x00000384
     37c:	0000038c 	.word	0x0000038c
     380:	00000398 	.word	0x00000398
	case 1:
	  chip_addr = fpga_chip;
	  break;
	case 2:
	  chip_addr = fpga_sdram;
     384:	e3a04331 	mov	r4, #-1006632960	; 0xc4000000
	  break;
     388:	ea000005 	b	3a4 <main+0x150>
	case 3:
  	  chip_addr = hps_chip;
     38c:	e3a04000 	mov	r4, #0
     390:	e34f4fff 	movt	r4, #65535	; 0xffff
	  break;
     394:	ea000002 	b	3a4 <main+0x150>
	case 4:
	  chip_addr = hps_sdram;
     398:	e3a04201 	mov	r4, #268435456	; 0x10000000
	  break;
     39c:	ea000000 	b	3a4 <main+0x150>
	break;
   }

   switch(chip_selected){
	case 1:
	  chip_addr = fpga_chip;
     3a0:	e3a04103 	mov	r4, #-1073741824	; 0xc0000000
}

static inline void initCounters ()
{
// Enable user access to performance counter
asm volatile ("MCR p15, 0, %0, C9, C14, 0\t\n" :: "r"(1));
     3a4:	e3a03001 	mov	r3, #1
     3a8:	ee093f1e 	mcr	15, 0, r3, cr9, cr14, {0}
// Reset all counters to zero
int MCRP15ResetAll = 23; 
asm volatile ("MCR p15, 0, %0, c9, c12, 0\t\n" :: "r"(MCRP15ResetAll));  
     3ac:	e3a03017 	mov	r3, #23
     3b0:	ee093f1c 	mcr	15, 0, r3, cr9, cr12, {0}
// Enable all counters:  
asm volatile ("MCR p15, 0, %0, c9, c12, 1\t\n" :: "r"(0x8000000f));  
     3b4:	e3a0313e 	mov	r3, #-2147483633	; 0x8000000f
     3b8:	ee093f3c 	mcr	15, 0, r3, cr9, cr12, {1}
// Disable counter interrupts
asm volatile ("MCR p15, 0, %0, C9, C14, 2\t\n" :: "r"(0x8000000f));
     3bc:	ee093f5e 	mcr	15, 0, r3, cr9, cr14, {2}
// Clear overflows:
asm volatile ("MCR p15, 0, %0, c9, c12, 3\t\n" :: "r"(0x8000000f));
     3c0:	ee093f7c 	mcr	15, 0, r3, cr9, cr12, {3}

static inline unsigned int getCycles ()
{
unsigned int cycleCount;
// Read CCNT register
asm volatile ("MRC p15, 0, %0, c9, c13, 0\t\n": "=r"(cycleCount));  
     3c4:	ee191f1d 	mrc	15, 0, r1, cr9, cr13, {0}
     3c8:	e1a02004 	mov	r2, r4
	//printf("Chip_addr = %#X\n", chip_addr);
	//chip_addr++;
	//printf("Chip_addr = %#X\n", chip_addr);
   initCounters();
   unsigned int time = getCycles();
   for(index = 0xFFFF0000; index < 0xFFFF1F40; index++){
     3cc:	e3a03000 	mov	r3, #0
     3d0:	e34f3fff 	movt	r3, #65535	; 0xffff
     3d4:	e3a00d7d 	mov	r0, #8000	; 0x1f40
     3d8:	e34f0fff 	movt	r0, #65535	; 0xffff
	*chip_addr = index;
     3dc:	e4823004 	str	r3, [r2], #4
	//printf("Chip_addr = %#X\n", chip_addr);
	//chip_addr++;
	//printf("Chip_addr = %#X\n", chip_addr);
   initCounters();
   unsigned int time = getCycles();
   for(index = 0xFFFF0000; index < 0xFFFF1F40; index++){
     3e0:	e2833001 	add	r3, r3, #1
     3e4:	e1530000 	cmp	r3, r0
     3e8:	1afffffb 	bne	3dc <main+0x188>
     3ec:	e2844c7d 	add	r4, r4, #32000	; 0x7d00

static inline unsigned int getCycles ()
{
unsigned int cycleCount;
// Read CCNT register
asm volatile ("MRC p15, 0, %0, c9, c13, 0\t\n": "=r"(cycleCount));  
     3f0:	ee193f1d 	mrc	15, 0, r3, cr9, cr13, {0}
	*chip_addr = index;
	chip_addr++;
   }//for loop#1
   fakeCounter = fakeCounter + 1;
   time = getCycles() - time;
   printf("Elapsed Time for Write: %d cycles\n", time);
     3f4:	e30b07b4 	movw	r0, #47028	; 0xb7b4
     3f8:	e3400000 	movt	r0, #0
     3fc:	e0611003 	rsb	r1, r1, r3
     400:	eb000457 	bl	1564 <printf>

   switch(chip_selected){
     404:	e24bb001 	sub	r11, r11, #1
     408:	e35b0003 	cmp	r11, #3
     40c:	979ff10b 	ldrls	pc, [pc, r11, lsl #2]
     410:	ea00000b 	b	444 <main+0x1f0>
     414:	00000440 	.word	0x00000440
     418:	00000424 	.word	0x00000424
     41c:	0000042c 	.word	0x0000042c
     420:	00000438 	.word	0x00000438
	case 1:
	  chip_addr = fpga_chip;
	  break;
	case 2:
	  chip_addr = fpga_sdram;
     424:	e3a04331 	mov	r4, #-1006632960	; 0xc4000000
	  break;
     428:	ea000005 	b	444 <main+0x1f0>
	case 3:
  	  chip_addr = hps_chip;
     42c:	e3a04000 	mov	r4, #0
     430:	e34f4fff 	movt	r4, #65535	; 0xffff
	  break;
     434:	ea000002 	b	444 <main+0x1f0>
	case 4:
	  chip_addr = hps_sdram;
     438:	e3a04201 	mov	r4, #268435456	; 0x10000000
	  break;
     43c:	ea000000 	b	444 <main+0x1f0>
   time = getCycles() - time;
   printf("Elapsed Time for Write: %d cycles\n", time);

   switch(chip_selected){
	case 1:
	  chip_addr = fpga_chip;
     440:	e3a04103 	mov	r4, #-1073741824	; 0xc0000000

static inline unsigned int getCycles ()
{
unsigned int cycleCount;
// Read CCNT register
asm volatile ("MRC p15, 0, %0, c9, c13, 0\t\n": "=r"(cycleCount));  
     444:	ee19bf1d 	mrc	15, 0, r11, cr9, cr13, {0}
 
   time = getCycles();
   for(index = 0xFFFF0000; index < 0xFFFF1F40; index++){
	checker = *chip_addr;	

	if(index != checker){
     448:	e5943000 	ldr	r3, [r4]
     44c:	e3730801 	cmn	r3, #65536	; 0x10000
     450:	0a000014 	beq	4a8 <main+0x254>
     454:	ea000003 	b	468 <main+0x214>
     458:	e1a04003 	mov	r4, r3
	  break;
   }//switch
 
   time = getCycles();
   for(index = 0xFFFF0000; index < 0xFFFF1F40; index++){
	checker = *chip_addr;	
     45c:	e4931004 	ldr	r1, [r3], #4

	if(index != checker){
     460:	e1510002 	cmp	r1, r2
     464:	0a000003 	beq	478 <main+0x224>
	  printf("OOPS.\n");
     468:	e30b07d8 	movw	r0, #47064	; 0xb7d8
     46c:	e3400000 	movt	r0, #0
     470:	eb000470 	bl	1638 <puts>
	  break;
     474:	ea000003 	b	488 <main+0x234>
	}// read and check val

	chip_addr++;
     478:	e1a04003 	mov	r4, r3
	default:
	  break;
   }//switch
 
   time = getCycles();
   for(index = 0xFFFF0000; index < 0xFFFF1F40; index++){
     47c:	e2812001 	add	r2, r1, #1
     480:	e1520000 	cmp	r2, r0
     484:	9afffff3 	bls	458 <main+0x204>

static inline unsigned int getCycles ()
{
unsigned int cycleCount;
// Read CCNT register
asm volatile ("MRC p15, 0, %0, c9, c13, 0\t\n": "=r"(cycleCount));  
     488:	ee191f1d 	mrc	15, 0, r1, cr9, cr13, {0}
	chip_addr++;

   }//for loop#2
   fakeCounter = fakeCounter + 1;
   time = getCycles() - time;
   printf("Elapsed Time for Read: %d cycles\n", time);
     48c:	e30b07e0 	movw	r0, #47072	; 0xb7e0
     490:	e3400000 	movt	r0, #0
     494:	e06b1001 	rsb	r1, r11, r1
     498:	eb000431 	bl	1564 <printf>

    input[0] = '\0';
     49c:	e3a03000 	mov	r3, #0
     4a0:	e5cd3104 	strb	r3, [sp, #260]	; 0x104
  }// while 1
     4a4:	eaffff80 	b	2ac <main+0x58>
	if(index != checker){
	  printf("OOPS.\n");
	  break;
	}// read and check val

	chip_addr++;
     4a8:	e2843004 	add	r3, r4, #4
	default:
	  break;
   }//switch
 
   time = getCycles();
   for(index = 0xFFFF0000; index < 0xFFFF1F40; index++){
     4ac:	e3a02001 	mov	r2, #1
     4b0:	e34f2fff 	movt	r2, #65535	; 0xffff
     4b4:	e3010f3f 	movw	r0, #7999	; 0x1f3f
     4b8:	e34f0fff 	movt	r0, #65535	; 0xffff
     4bc:	eaffffe5 	b	458 <main+0x204>
    
    //printf("CS: %i\n\n", chip_selected);
    
///////////////////////////////////////////
   if(chip_selected == 0){
	printf("Bye!\n");
     4c0:	e30b079c 	movw	r0, #47004	; 0xb79c
     4c4:	e3400000 	movt	r0, #0
     4c8:	eb00045a 	bl	1638 <puts>
   time = getCycles() - time;
   printf("Elapsed Time for Read: %d cycles\n", time);

    input[0] = '\0';
  }// while 1
  printf("Program Exited\n");
     4cc:	e30b07a4 	movw	r0, #47012	; 0xb7a4
     4d0:	e3400000 	movt	r0, #0
     4d4:	eb000457 	bl	1638 <puts>
}// main
     4d8:	e3a00000 	mov	r0, #0
     4dc:	e28ddf45 	add	sp, sp, #276	; 0x114
     4e0:	e8bd8ff0 	pop	{r4, r5, r6, r7, r8, r9, r10, r11, pc}

000004e4 <atexit>:
     4e4:	e92d4008 	push	{r3, lr}
     4e8:	e1a01000 	mov	r1, r0
     4ec:	e3a00000 	mov	r0, #0
     4f0:	e1a03000 	mov	r3, r0
     4f4:	e1a02000 	mov	r2, r0
     4f8:	eb000e39 	bl	3de4 <__register_exitproc>
     4fc:	e8bd4008 	pop	{r3, lr}
     500:	e12fff1e 	bx	lr

00000504 <atoi>:
     504:	e92d4008 	push	{r3, lr}
     508:	e3a01000 	mov	r1, #0
     50c:	e3a0200a 	mov	r2, #10
     510:	eb0005a3 	bl	1ba4 <strtol>
     514:	e8bd4008 	pop	{r3, lr}
     518:	e12fff1e 	bx	lr

0000051c <_atoi_r>:
     51c:	e92d4008 	push	{r3, lr}
     520:	e3a02000 	mov	r2, #0
     524:	e3a0300a 	mov	r3, #10
     528:	eb000529 	bl	19d4 <_strtol_r>
     52c:	e8bd4008 	pop	{r3, lr}
     530:	e12fff1e 	bx	lr

00000534 <exit>:
     534:	e92d4008 	push	{r3, lr}
     538:	e3a01000 	mov	r1, #0
     53c:	e1a04000 	mov	r4, r0
     540:	eb000e63 	bl	3ed4 <__call_exitprocs>
     544:	e59f3018 	ldr	r3, [pc, #24]	; 564 <exit+0x30>
     548:	e5930000 	ldr	r0, [r3]
     54c:	e590303c 	ldr	r3, [r0, #60]	; 0x3c
     550:	e3530000 	cmp	r3, #0
     554:	11a0e00f 	movne	lr, pc
     558:	112fff13 	bxne	r3
     55c:	e1a00004 	mov	r0, r4
     560:	eb002aba 	bl	b050 <_exit>
     564:	0000b804 	.word	0x0000b804

00000568 <_fgets_r>:
     568:	e3520001 	cmp	r2, #1
     56c:	e92d47f0 	push	{r4, r5, r6, r7, r8, r9, r10, lr}
     570:	e1a06002 	mov	r6, r2
     574:	e1a0a001 	mov	r10, r1
     578:	e1a05003 	mov	r5, r3
     57c:	e1a09000 	mov	r9, r0
     580:	da00003a 	ble	670 <_fgets_r+0x108>
     584:	e3500000 	cmp	r0, #0
     588:	0a000002 	beq	598 <_fgets_r+0x30>
     58c:	e5903038 	ldr	r3, [r0, #56]	; 0x38
     590:	e3530000 	cmp	r3, #0
     594:	0a000033 	beq	668 <_fgets_r+0x100>
     598:	e2466001 	sub	r6, r6, #1
     59c:	e1a0700a 	mov	r7, r10
     5a0:	ea000013 	b	5f4 <_fgets_r+0x8c>
     5a4:	e5958000 	ldr	r8, [r5]
     5a8:	e1540006 	cmp	r4, r6
     5ac:	21a04006 	movcs	r4, r6
     5b0:	e1a02004 	mov	r2, r4
     5b4:	e3a0100a 	mov	r1, #10
     5b8:	e1a00008 	mov	r0, r8
     5bc:	eb00031b 	bl	1230 <memchr>
     5c0:	e2503000 	subs	r3, r0, #0
     5c4:	e1a01008 	mov	r1, r8
     5c8:	e1a02004 	mov	r2, r4
     5cc:	e1a00007 	mov	r0, r7
     5d0:	1a000017 	bne	634 <_fgets_r+0xcc>
     5d4:	e8951008 	ldm	r5, {r3, r12}
     5d8:	e064c00c 	rsb	r12, r4, r12
     5dc:	e0833004 	add	r3, r3, r4
     5e0:	e8851008 	stm	r5, {r3, r12}
     5e4:	eb000356 	bl	1344 <memcpy>
     5e8:	e0566004 	subs	r6, r6, r4
     5ec:	e0877004 	add	r7, r7, r4
     5f0:	0a00000a 	beq	620 <_fgets_r+0xb8>
     5f4:	e5954004 	ldr	r4, [r5, #4]
     5f8:	e3540000 	cmp	r4, #0
     5fc:	1affffe8 	bne	5a4 <_fgets_r+0x3c>
     600:	e1a00009 	mov	r0, r9
     604:	e1a01005 	mov	r1, r5
     608:	eb00041a 	bl	1678 <__srefill_r>
     60c:	e3500000 	cmp	r0, #0
     610:	05954004 	ldreq	r4, [r5, #4]
     614:	0affffe2 	beq	5a4 <_fgets_r+0x3c>
     618:	e157000a 	cmp	r7, r10
     61c:	0a000013 	beq	670 <_fgets_r+0x108>
     620:	e3a03000 	mov	r3, #0
     624:	e5c73000 	strb	r3, [r7]
     628:	e1a0000a 	mov	r0, r10
     62c:	e8bd47f0 	pop	{r4, r5, r6, r7, r8, r9, r10, lr}
     630:	e12fff1e 	bx	lr
     634:	e2833001 	add	r3, r3, #1
     638:	e5952004 	ldr	r2, [r5, #4]
     63c:	e0684003 	rsb	r4, r8, r3
     640:	e0642002 	rsb	r2, r4, r2
     644:	e5853000 	str	r3, [r5]
     648:	e5852004 	str	r2, [r5, #4]
     64c:	e1a02004 	mov	r2, r4
     650:	eb00033b 	bl	1344 <memcpy>
     654:	e3a03000 	mov	r3, #0
     658:	e7c73004 	strb	r3, [r7, r4]
     65c:	e1a0000a 	mov	r0, r10
     660:	e8bd47f0 	pop	{r4, r5, r6, r7, r8, r9, r10, lr}
     664:	e12fff1e 	bx	lr
     668:	eb000033 	bl	73c <__sinit>
     66c:	eaffffc9 	b	598 <_fgets_r+0x30>
     670:	e3a00000 	mov	r0, #0
     674:	eaffffec 	b	62c <_fgets_r+0xc4>

00000678 <fgets>:
     678:	e59fc01c 	ldr	r12, [pc, #28]	; 69c <fgets+0x24>
     67c:	e52d4004 	push	{r4}		; (str r4, [sp, #-4]!)
     680:	e1a04001 	mov	r4, r1
     684:	e1a03002 	mov	r3, r2
     688:	e1a01000 	mov	r1, r0
     68c:	e1a02004 	mov	r2, r4
     690:	e59c0000 	ldr	r0, [r12]
     694:	e49d4004 	pop	{r4}		; (ldr r4, [sp], #4)
     698:	eaffffb2 	b	568 <_fgets_r>
     69c:	0000bb38 	.word	0x0000bb38

000006a0 <__fp_lock>:
     6a0:	e3a00000 	mov	r0, #0
     6a4:	e12fff1e 	bx	lr

000006a8 <__fp_unlock>:
     6a8:	e3a00000 	mov	r0, #0
     6ac:	e12fff1e 	bx	lr

000006b0 <_cleanup_r>:
     6b0:	e92d4008 	push	{r3, lr}
     6b4:	e59f1008 	ldr	r1, [pc, #8]	; 6c4 <_cleanup_r+0x14>
     6b8:	eb0000cd 	bl	9f4 <_fwalk>
     6bc:	e8bd4008 	pop	{r3, lr}
     6c0:	e12fff1e 	bx	lr
     6c4:	00005a70 	.word	0x00005a70

000006c8 <__sfmoreglue>:
     6c8:	e2413001 	sub	r3, r1, #1
     6cc:	e92d4070 	push	{r4, r5, r6, lr}
     6d0:	e0835083 	add	r5, r3, r3, lsl #1
     6d4:	e0833105 	add	r3, r3, r5, lsl #2
     6d8:	e1a05183 	lsl	r5, r3, #3
     6dc:	e1a06001 	mov	r6, r1
     6e0:	e2851074 	add	r1, r5, #116	; 0x74
     6e4:	eb000106 	bl	b04 <_malloc_r>
     6e8:	e2504000 	subs	r4, r0, #0
     6ec:	0a000006 	beq	70c <__sfmoreglue+0x44>
     6f0:	e3a01000 	mov	r1, #0
     6f4:	e284000c 	add	r0, r4, #12
     6f8:	e5846004 	str	r6, [r4, #4]
     6fc:	e2852068 	add	r2, r5, #104	; 0x68
     700:	e5841000 	str	r1, [r4]
     704:	e5840008 	str	r0, [r4, #8]
     708:	eb000349 	bl	1434 <memset>
     70c:	e1a00004 	mov	r0, r4
     710:	e8bd4070 	pop	{r4, r5, r6, lr}
     714:	e12fff1e 	bx	lr

00000718 <_cleanup>:
     718:	e92d4008 	push	{r3, lr}
     71c:	e59f3010 	ldr	r3, [pc, #16]	; 734 <_cleanup+0x1c>
     720:	e59f1010 	ldr	r1, [pc, #16]	; 738 <_cleanup+0x20>
     724:	e5930000 	ldr	r0, [r3]
     728:	eb0000b1 	bl	9f4 <_fwalk>
     72c:	e8bd4008 	pop	{r3, lr}
     730:	e12fff1e 	bx	lr
     734:	0000b804 	.word	0x0000b804
     738:	00005a70 	.word	0x00005a70

0000073c <__sinit>:
     73c:	e92d4ff0 	push	{r4, r5, r6, r7, r8, r9, r10, r11, lr}
     740:	e5904038 	ldr	r4, [r0, #56]	; 0x38
     744:	e3540000 	cmp	r4, #0
     748:	e24dd00c 	sub	sp, sp, #12
     74c:	e1a07000 	mov	r7, r0
     750:	1a00004b 	bne	884 <__sinit+0x148>
     754:	e5975004 	ldr	r5, [r7, #4]
     758:	e59f0130 	ldr	r0, [pc, #304]	; 890 <__sinit+0x154>
     75c:	e3a03004 	mov	r3, #4
     760:	e3a01003 	mov	r1, #3
     764:	e2872fbb 	add	r2, r7, #748	; 0x2ec
     768:	e587003c 	str	r0, [r7, #60]	; 0x3c
     76c:	e58712e4 	str	r1, [r7, #740]	; 0x2e4
     770:	e58722e8 	str	r2, [r7, #744]	; 0x2e8
     774:	e58742e0 	str	r4, [r7, #736]	; 0x2e0
     778:	e285005c 	add	r0, r5, #92	; 0x5c
     77c:	e1c530bc 	strh	r3, [r5, #12]
     780:	e5854000 	str	r4, [r5]
     784:	e5854004 	str	r4, [r5, #4]
     788:	e5854008 	str	r4, [r5, #8]
     78c:	e5854064 	str	r4, [r5, #100]	; 0x64
     790:	e1c540be 	strh	r4, [r5, #14]
     794:	e5854010 	str	r4, [r5, #16]
     798:	e5854014 	str	r4, [r5, #20]
     79c:	e5854018 	str	r4, [r5, #24]
     7a0:	e1a01004 	mov	r1, r4
     7a4:	e3a02008 	mov	r2, #8
     7a8:	eb000321 	bl	1434 <memset>
     7ac:	e59fb0e0 	ldr	r11, [pc, #224]	; 894 <__sinit+0x158>
     7b0:	e5976008 	ldr	r6, [r7, #8]
     7b4:	e59fa0dc 	ldr	r10, [pc, #220]	; 898 <__sinit+0x15c>
     7b8:	e59f90dc 	ldr	r9, [pc, #220]	; 89c <__sinit+0x160>
     7bc:	e59f80dc 	ldr	r8, [pc, #220]	; 8a0 <__sinit+0x164>
     7c0:	e3a03001 	mov	r3, #1
     7c4:	e3a02009 	mov	r2, #9
     7c8:	e585501c 	str	r5, [r5, #28]
     7cc:	e585b020 	str	r11, [r5, #32]
     7d0:	e585a024 	str	r10, [r5, #36]	; 0x24
     7d4:	e5859028 	str	r9, [r5, #40]	; 0x28
     7d8:	e585802c 	str	r8, [r5, #44]	; 0x2c
     7dc:	e1a01004 	mov	r1, r4
     7e0:	e1c630be 	strh	r3, [r6, #14]
     7e4:	e1c620bc 	strh	r2, [r6, #12]
     7e8:	e5864000 	str	r4, [r6]
     7ec:	e5864004 	str	r4, [r6, #4]
     7f0:	e5864008 	str	r4, [r6, #8]
     7f4:	e5864064 	str	r4, [r6, #100]	; 0x64
     7f8:	e5864010 	str	r4, [r6, #16]
     7fc:	e5864014 	str	r4, [r6, #20]
     800:	e5864018 	str	r4, [r6, #24]
     804:	e3a02008 	mov	r2, #8
     808:	e286005c 	add	r0, r6, #92	; 0x5c
     80c:	e58d3004 	str	r3, [sp, #4]
     810:	eb000307 	bl	1434 <memset>
     814:	e597500c 	ldr	r5, [r7, #12]
     818:	e3a00012 	mov	r0, #18
     81c:	e3a02002 	mov	r2, #2
     820:	e586601c 	str	r6, [r6, #28]
     824:	e586b020 	str	r11, [r6, #32]
     828:	e586a024 	str	r10, [r6, #36]	; 0x24
     82c:	e5869028 	str	r9, [r6, #40]	; 0x28
     830:	e586802c 	str	r8, [r6, #44]	; 0x2c
     834:	e1a01004 	mov	r1, r4
     838:	e1c500bc 	strh	r0, [r5, #12]
     83c:	e1c520be 	strh	r2, [r5, #14]
     840:	e5854000 	str	r4, [r5]
     844:	e5854004 	str	r4, [r5, #4]
     848:	e5854008 	str	r4, [r5, #8]
     84c:	e5854064 	str	r4, [r5, #100]	; 0x64
     850:	e5854010 	str	r4, [r5, #16]
     854:	e5854014 	str	r4, [r5, #20]
     858:	e5854018 	str	r4, [r5, #24]
     85c:	e285005c 	add	r0, r5, #92	; 0x5c
     860:	e3a02008 	mov	r2, #8
     864:	eb0002f2 	bl	1434 <memset>
     868:	e59d3004 	ldr	r3, [sp, #4]
     86c:	e585501c 	str	r5, [r5, #28]
     870:	e585b020 	str	r11, [r5, #32]
     874:	e585a024 	str	r10, [r5, #36]	; 0x24
     878:	e5859028 	str	r9, [r5, #40]	; 0x28
     87c:	e585802c 	str	r8, [r5, #44]	; 0x2c
     880:	e5873038 	str	r3, [r7, #56]	; 0x38
     884:	e28dd00c 	add	sp, sp, #12
     888:	e8bd4ff0 	pop	{r4, r5, r6, r7, r8, r9, r10, r11, lr}
     88c:	e12fff1e 	bx	lr
     890:	000006b0 	.word	0x000006b0
     894:	0000189c 	.word	0x0000189c
     898:	000018d8 	.word	0x000018d8
     89c:	00001930 	.word	0x00001930
     8a0:	00001960 	.word	0x00001960

000008a4 <__sfp>:
     8a4:	e59f30ec 	ldr	r3, [pc, #236]	; 998 <__sfp+0xf4>
     8a8:	e92d4070 	push	{r4, r5, r6, lr}
     8ac:	e5935000 	ldr	r5, [r3]
     8b0:	e5953038 	ldr	r3, [r5, #56]	; 0x38
     8b4:	e3530000 	cmp	r3, #0
     8b8:	e1a06000 	mov	r6, r0
     8bc:	0a00002f 	beq	980 <__sfp+0xdc>
     8c0:	e2855e2e 	add	r5, r5, #736	; 0x2e0
     8c4:	e5953004 	ldr	r3, [r5, #4]
     8c8:	e2533001 	subs	r3, r3, #1
     8cc:	e5954008 	ldr	r4, [r5, #8]
     8d0:	5a000004 	bpl	8e8 <__sfp+0x44>
     8d4:	ea00001d 	b	950 <__sfp+0xac>
     8d8:	e2433001 	sub	r3, r3, #1
     8dc:	e3730001 	cmn	r3, #1
     8e0:	e2844068 	add	r4, r4, #104	; 0x68
     8e4:	0a000019 	beq	950 <__sfp+0xac>
     8e8:	e1d420fc 	ldrsh	r2, [r4, #12]
     8ec:	e3520000 	cmp	r2, #0
     8f0:	1afffff8 	bne	8d8 <__sfp+0x34>
     8f4:	e3a05000 	mov	r5, #0
     8f8:	e3e02000 	mvn	r2, #0
     8fc:	e3a03001 	mov	r3, #1
     900:	e1c420be 	strh	r2, [r4, #14]
     904:	e1c430bc 	strh	r3, [r4, #12]
     908:	e5845064 	str	r5, [r4, #100]	; 0x64
     90c:	e5845000 	str	r5, [r4]
     910:	e5845008 	str	r5, [r4, #8]
     914:	e5845004 	str	r5, [r4, #4]
     918:	e5845010 	str	r5, [r4, #16]
     91c:	e5845014 	str	r5, [r4, #20]
     920:	e5845018 	str	r5, [r4, #24]
     924:	e1a01005 	mov	r1, r5
     928:	e284005c 	add	r0, r4, #92	; 0x5c
     92c:	e3a02008 	mov	r2, #8
     930:	eb0002bf 	bl	1434 <memset>
     934:	e5845030 	str	r5, [r4, #48]	; 0x30
     938:	e5845034 	str	r5, [r4, #52]	; 0x34
     93c:	e5845044 	str	r5, [r4, #68]	; 0x44
     940:	e5845048 	str	r5, [r4, #72]	; 0x48
     944:	e1a00004 	mov	r0, r4
     948:	e8bd4070 	pop	{r4, r5, r6, lr}
     94c:	e12fff1e 	bx	lr
     950:	e5953000 	ldr	r3, [r5]
     954:	e3530000 	cmp	r3, #0
     958:	11a05003 	movne	r5, r3
     95c:	1affffd8 	bne	8c4 <__sfp+0x20>
     960:	e1a00006 	mov	r0, r6
     964:	e3a01004 	mov	r1, #4
     968:	ebffff56 	bl	6c8 <__sfmoreglue>
     96c:	e3500000 	cmp	r0, #0
     970:	e5850000 	str	r0, [r5]
     974:	0a000004 	beq	98c <__sfp+0xe8>
     978:	e1a05000 	mov	r5, r0
     97c:	eaffffd0 	b	8c4 <__sfp+0x20>
     980:	e1a00005 	mov	r0, r5
     984:	ebffff6c 	bl	73c <__sinit>
     988:	eaffffcc 	b	8c0 <__sfp+0x1c>
     98c:	e3a0300c 	mov	r3, #12
     990:	e5863000 	str	r3, [r6]
     994:	eaffffeb 	b	948 <__sfp+0xa4>
     998:	0000b804 	.word	0x0000b804

0000099c <__sfp_lock_acquire>:
     99c:	e12fff1e 	bx	lr

000009a0 <__sfp_lock_release>:
     9a0:	e12fff1e 	bx	lr

000009a4 <__sinit_lock_acquire>:
     9a4:	e12fff1e 	bx	lr

000009a8 <__sinit_lock_release>:
     9a8:	e12fff1e 	bx	lr

000009ac <__fp_lock_all>:
     9ac:	e92d4008 	push	{r3, lr}
     9b0:	e59f3010 	ldr	r3, [pc, #16]	; 9c8 <__fp_lock_all+0x1c>
     9b4:	e59f1010 	ldr	r1, [pc, #16]	; 9cc <__fp_lock_all+0x20>
     9b8:	e5930000 	ldr	r0, [r3]
     9bc:	eb00000c 	bl	9f4 <_fwalk>
     9c0:	e8bd4008 	pop	{r3, lr}
     9c4:	e12fff1e 	bx	lr
     9c8:	0000bb38 	.word	0x0000bb38
     9cc:	000006a0 	.word	0x000006a0

000009d0 <__fp_unlock_all>:
     9d0:	e92d4008 	push	{r3, lr}
     9d4:	e59f3010 	ldr	r3, [pc, #16]	; 9ec <__fp_unlock_all+0x1c>
     9d8:	e59f1010 	ldr	r1, [pc, #16]	; 9f0 <__fp_unlock_all+0x20>
     9dc:	e5930000 	ldr	r0, [r3]
     9e0:	eb000003 	bl	9f4 <_fwalk>
     9e4:	e8bd4008 	pop	{r3, lr}
     9e8:	e12fff1e 	bx	lr
     9ec:	0000bb38 	.word	0x0000bb38
     9f0:	000006a8 	.word	0x000006a8

000009f4 <_fwalk>:
     9f4:	e92d41f0 	push	{r4, r5, r6, r7, r8, lr}
     9f8:	e2906e2e 	adds	r6, r0, #736	; 0x2e0
     9fc:	e1a08001 	mov	r8, r1
     a00:	0a000018 	beq	a68 <_fwalk+0x74>
     a04:	e3a07000 	mov	r7, #0
     a08:	e5965004 	ldr	r5, [r6, #4]
     a0c:	e2555001 	subs	r5, r5, #1
     a10:	e5964008 	ldr	r4, [r6, #8]
     a14:	4a00000d 	bmi	a50 <_fwalk+0x5c>
     a18:	e1d430bc 	ldrh	r3, [r4, #12]
     a1c:	e3530001 	cmp	r3, #1
     a20:	e2455001 	sub	r5, r5, #1
     a24:	9a000006 	bls	a44 <_fwalk+0x50>
     a28:	e1d430fe 	ldrsh	r3, [r4, #14]
     a2c:	e3730001 	cmn	r3, #1
     a30:	e1a00004 	mov	r0, r4
     a34:	0a000002 	beq	a44 <_fwalk+0x50>
     a38:	e1a0e00f 	mov	lr, pc
     a3c:	e12fff18 	bx	r8
     a40:	e1877000 	orr	r7, r7, r0
     a44:	e3750001 	cmn	r5, #1
     a48:	e2844068 	add	r4, r4, #104	; 0x68
     a4c:	1afffff1 	bne	a18 <_fwalk+0x24>
     a50:	e5966000 	ldr	r6, [r6]
     a54:	e3560000 	cmp	r6, #0
     a58:	1affffea 	bne	a08 <_fwalk+0x14>
     a5c:	e1a00007 	mov	r0, r7
     a60:	e8bd41f0 	pop	{r4, r5, r6, r7, r8, lr}
     a64:	e12fff1e 	bx	lr
     a68:	e1a07006 	mov	r7, r6
     a6c:	e1a00007 	mov	r0, r7
     a70:	e8bd41f0 	pop	{r4, r5, r6, r7, r8, lr}
     a74:	e12fff1e 	bx	lr

00000a78 <_fwalk_reent>:
     a78:	e92d43f8 	push	{r3, r4, r5, r6, r7, r8, r9, lr}
     a7c:	e2906e2e 	adds	r6, r0, #736	; 0x2e0
     a80:	e1a08000 	mov	r8, r0
     a84:	e1a09001 	mov	r9, r1
     a88:	0a000019 	beq	af4 <_fwalk_reent+0x7c>
     a8c:	e3a07000 	mov	r7, #0
     a90:	e5965004 	ldr	r5, [r6, #4]
     a94:	e2555001 	subs	r5, r5, #1
     a98:	e5964008 	ldr	r4, [r6, #8]
     a9c:	4a00000e 	bmi	adc <_fwalk_reent+0x64>
     aa0:	e1d430bc 	ldrh	r3, [r4, #12]
     aa4:	e3530001 	cmp	r3, #1
     aa8:	e2455001 	sub	r5, r5, #1
     aac:	9a000007 	bls	ad0 <_fwalk_reent+0x58>
     ab0:	e1d430fe 	ldrsh	r3, [r4, #14]
     ab4:	e3730001 	cmn	r3, #1
     ab8:	e1a01004 	mov	r1, r4
     abc:	e1a00008 	mov	r0, r8
     ac0:	0a000002 	beq	ad0 <_fwalk_reent+0x58>
     ac4:	e1a0e00f 	mov	lr, pc
     ac8:	e12fff19 	bx	r9
     acc:	e1877000 	orr	r7, r7, r0
     ad0:	e3750001 	cmn	r5, #1
     ad4:	e2844068 	add	r4, r4, #104	; 0x68
     ad8:	1afffff0 	bne	aa0 <_fwalk_reent+0x28>
     adc:	e5966000 	ldr	r6, [r6]
     ae0:	e3560000 	cmp	r6, #0
     ae4:	1affffe9 	bne	a90 <_fwalk_reent+0x18>
     ae8:	e1a00007 	mov	r0, r7
     aec:	e8bd43f8 	pop	{r3, r4, r5, r6, r7, r8, r9, lr}
     af0:	e12fff1e 	bx	lr
     af4:	e1a07006 	mov	r7, r6
     af8:	e1a00007 	mov	r0, r7
     afc:	e8bd43f8 	pop	{r3, r4, r5, r6, r7, r8, r9, lr}
     b00:	e12fff1e 	bx	lr

00000b04 <_malloc_r>:
     b04:	e92d4ff0 	push	{r4, r5, r6, r7, r8, r9, r10, r11, lr}
     b08:	e281500b 	add	r5, r1, #11
     b0c:	e3550016 	cmp	r5, #22
     b10:	83c55007 	bichi	r5, r5, #7
     b14:	81a03fa5 	lsrhi	r3, r5, #31
     b18:	93a03000 	movls	r3, #0
     b1c:	93a05010 	movls	r5, #16
     b20:	e1550001 	cmp	r5, r1
     b24:	21a01003 	movcs	r1, r3
     b28:	33831001 	orrcc	r1, r3, #1
     b2c:	e3510000 	cmp	r1, #0
     b30:	13a0300c 	movne	r3, #12
     b34:	e24dd00c 	sub	sp, sp, #12
     b38:	e1a06000 	mov	r6, r0
     b3c:	15803000 	strne	r3, [r0]
     b40:	13a04000 	movne	r4, #0
     b44:	1a000015 	bne	ba0 <_malloc_r+0x9c>
     b48:	eb000276 	bl	1528 <__malloc_lock>
     b4c:	e3550f7e 	cmp	r5, #504	; 0x1f8
     b50:	2a000016 	bcs	bb0 <_malloc_r+0xac>
     b54:	e59f76c8 	ldr	r7, [pc, #1736]	; 1224 <_malloc_r+0x720>
     b58:	e1a0e1a5 	lsr	lr, r5, #3
     b5c:	e087318e 	add	r3, r7, lr, lsl #3
     b60:	e593400c 	ldr	r4, [r3, #12]
     b64:	e1540003 	cmp	r4, r3
     b68:	0a000145 	beq	1084 <_malloc_r+0x580>
     b6c:	e5943004 	ldr	r3, [r4, #4]
     b70:	e3c33003 	bic	r3, r3, #3
     b74:	e0843003 	add	r3, r4, r3
     b78:	e593c004 	ldr	r12, [r3, #4]
     b7c:	e2841008 	add	r1, r4, #8
     b80:	e8910006 	ldm	r1, {r1, r2}
     b84:	e38cc001 	orr	r12, r12, #1
     b88:	e581200c 	str	r2, [r1, #12]
     b8c:	e1a00006 	mov	r0, r6
     b90:	e5821008 	str	r1, [r2, #8]
     b94:	e583c004 	str	r12, [r3, #4]
     b98:	eb000263 	bl	152c <__malloc_unlock>
     b9c:	e2844008 	add	r4, r4, #8
     ba0:	e1a00004 	mov	r0, r4
     ba4:	e28dd00c 	add	sp, sp, #12
     ba8:	e8bd4ff0 	pop	{r4, r5, r6, r7, r8, r9, r10, r11, lr}
     bac:	e12fff1e 	bx	lr
     bb0:	e1b0e4a5 	lsrs	lr, r5, #9
     bb4:	03a0107e 	moveq	r1, #126	; 0x7e
     bb8:	03a0e03f 	moveq	lr, #63	; 0x3f
     bbc:	1a000061 	bne	d48 <_malloc_r+0x244>
     bc0:	e59f765c 	ldr	r7, [pc, #1628]	; 1224 <_malloc_r+0x720>
     bc4:	e0871101 	add	r1, r7, r1, lsl #2
     bc8:	e591400c 	ldr	r4, [r1, #12]
     bcc:	e1510004 	cmp	r1, r4
     bd0:	1a000005 	bne	bec <_malloc_r+0xe8>
     bd4:	ea00000a 	b	c04 <_malloc_r+0x100>
     bd8:	e3530000 	cmp	r3, #0
     bdc:	aa0000de 	bge	f5c <_malloc_r+0x458>
     be0:	e594400c 	ldr	r4, [r4, #12]
     be4:	e1510004 	cmp	r1, r4
     be8:	0a000005 	beq	c04 <_malloc_r+0x100>
     bec:	e5942004 	ldr	r2, [r4, #4]
     bf0:	e3c22003 	bic	r2, r2, #3
     bf4:	e0653002 	rsb	r3, r5, r2
     bf8:	e353000f 	cmp	r3, #15
     bfc:	dafffff5 	ble	bd8 <_malloc_r+0xd4>
     c00:	e24ee001 	sub	lr, lr, #1
     c04:	e28ee001 	add	lr, lr, #1
     c08:	e59f3614 	ldr	r3, [pc, #1556]	; 1224 <_malloc_r+0x720>
     c0c:	e5974010 	ldr	r4, [r7, #16]
     c10:	e2838008 	add	r8, r3, #8
     c14:	e1540008 	cmp	r4, r8
     c18:	05931004 	ldreq	r1, [r3, #4]
     c1c:	0a000016 	beq	c7c <_malloc_r+0x178>
     c20:	e5942004 	ldr	r2, [r4, #4]
     c24:	e3c22003 	bic	r2, r2, #3
     c28:	e0651002 	rsb	r1, r5, r2
     c2c:	e351000f 	cmp	r1, #15
     c30:	ca000101 	bgt	103c <_malloc_r+0x538>
     c34:	e3510000 	cmp	r1, #0
     c38:	e5838014 	str	r8, [r3, #20]
     c3c:	e5838010 	str	r8, [r3, #16]
     c40:	aa000046 	bge	d60 <_malloc_r+0x25c>
     c44:	e3520c02 	cmp	r2, #512	; 0x200
     c48:	2a0000dc 	bcs	fc0 <_malloc_r+0x4bc>
     c4c:	e5930004 	ldr	r0, [r3, #4]
     c50:	e1a021a2 	lsr	r2, r2, #3
     c54:	e1a01142 	asr	r1, r2, #2
     c58:	e3a0c001 	mov	r12, #1
     c5c:	e180111c 	orr	r1, r0, r12, lsl r1
     c60:	e0832182 	add	r2, r3, r2, lsl #3
     c64:	e5920008 	ldr	r0, [r2, #8]
     c68:	e5831004 	str	r1, [r3, #4]
     c6c:	e5840008 	str	r0, [r4, #8]
     c70:	e584200c 	str	r2, [r4, #12]
     c74:	e5824008 	str	r4, [r2, #8]
     c78:	e580400c 	str	r4, [r0, #12]
     c7c:	e1a0314e 	asr	r3, lr, #2
     c80:	e3a00001 	mov	r0, #1
     c84:	e1a00310 	lsl	r0, r0, r3
     c88:	e1500001 	cmp	r0, r1
     c8c:	8a00003e 	bhi	d8c <_malloc_r+0x288>
     c90:	e1110000 	tst	r1, r0
     c94:	1a000008 	bne	cbc <_malloc_r+0x1b8>
     c98:	e1a00080 	lsl	r0, r0, #1
     c9c:	e3cee003 	bic	lr, lr, #3
     ca0:	e1110000 	tst	r1, r0
     ca4:	e28ee004 	add	lr, lr, #4
     ca8:	1a000003 	bne	cbc <_malloc_r+0x1b8>
     cac:	e1a00080 	lsl	r0, r0, #1
     cb0:	e1110000 	tst	r1, r0
     cb4:	e28ee004 	add	lr, lr, #4
     cb8:	0afffffb 	beq	cac <_malloc_r+0x1a8>
     cbc:	e087418e 	add	r4, r7, lr, lsl #3
     cc0:	e1a0c004 	mov	r12, r4
     cc4:	e1a0900e 	mov	r9, lr
     cc8:	e59c300c 	ldr	r3, [r12, #12]
     ccc:	e15c0003 	cmp	r12, r3
     cd0:	1a000005 	bne	cec <_malloc_r+0x1e8>
     cd4:	ea0000e5 	b	1070 <_malloc_r+0x56c>
     cd8:	e3520000 	cmp	r2, #0
     cdc:	aa0000ee 	bge	109c <_malloc_r+0x598>
     ce0:	e593300c 	ldr	r3, [r3, #12]
     ce4:	e15c0003 	cmp	r12, r3
     ce8:	0a0000e0 	beq	1070 <_malloc_r+0x56c>
     cec:	e5931004 	ldr	r1, [r3, #4]
     cf0:	e3c11003 	bic	r1, r1, #3
     cf4:	e0652001 	rsb	r2, r5, r1
     cf8:	e352000f 	cmp	r2, #15
     cfc:	dafffff5 	ble	cd8 <_malloc_r+0x1d4>
     d00:	e1a04003 	mov	r4, r3
     d04:	e5b4c008 	ldr	r12, [r4, #8]!
     d08:	e593100c 	ldr	r1, [r3, #12]
     d0c:	e3859001 	orr	r9, r5, #1
     d10:	e382e001 	orr	lr, r2, #1
     d14:	e0835005 	add	r5, r3, r5
     d18:	e5839004 	str	r9, [r3, #4]
     d1c:	e1a00006 	mov	r0, r6
     d20:	e58c100c 	str	r1, [r12, #12]
     d24:	e581c008 	str	r12, [r1, #8]
     d28:	e5875014 	str	r5, [r7, #20]
     d2c:	e5875010 	str	r5, [r7, #16]
     d30:	e585800c 	str	r8, [r5, #12]
     d34:	e5858008 	str	r8, [r5, #8]
     d38:	e585e004 	str	lr, [r5, #4]
     d3c:	e7852002 	str	r2, [r5, r2]
     d40:	eb0001f9 	bl	152c <__malloc_unlock>
     d44:	eaffff95 	b	ba0 <_malloc_r+0x9c>
     d48:	e35e0004 	cmp	lr, #4
     d4c:	8a000091 	bhi	f98 <_malloc_r+0x494>
     d50:	e1a0e325 	lsr	lr, r5, #6
     d54:	e28ee038 	add	lr, lr, #56	; 0x38
     d58:	e1a0108e 	lsl	r1, lr, #1
     d5c:	eaffff97 	b	bc0 <_malloc_r+0xbc>
     d60:	e0842002 	add	r2, r4, r2
     d64:	e5923004 	ldr	r3, [r2, #4]
     d68:	e3833001 	orr	r3, r3, #1
     d6c:	e1a00006 	mov	r0, r6
     d70:	e5823004 	str	r3, [r2, #4]
     d74:	eb0001ec 	bl	152c <__malloc_unlock>
     d78:	e2844008 	add	r4, r4, #8
     d7c:	e1a00004 	mov	r0, r4
     d80:	e28dd00c 	add	sp, sp, #12
     d84:	e8bd4ff0 	pop	{r4, r5, r6, r7, r8, r9, r10, r11, lr}
     d88:	e12fff1e 	bx	lr
     d8c:	e5974008 	ldr	r4, [r7, #8]
     d90:	e5949004 	ldr	r9, [r4, #4]
     d94:	e3c99003 	bic	r9, r9, #3
     d98:	e1550009 	cmp	r5, r9
     d9c:	8a000002 	bhi	dac <_malloc_r+0x2a8>
     da0:	e0653009 	rsb	r3, r5, r9
     da4:	e353000f 	cmp	r3, #15
     da8:	ca00005e 	bgt	f28 <_malloc_r+0x424>
     dac:	e59fa474 	ldr	r10, [pc, #1140]	; 1228 <_malloc_r+0x724>
     db0:	e5973408 	ldr	r3, [r7, #1032]	; 0x408
     db4:	e59ab000 	ldr	r11, [r10]
     db8:	e3730001 	cmn	r3, #1
     dbc:	e085b00b 	add	r11, r5, r11
     dc0:	128bba01 	addne	r11, r11, #4096	; 0x1000
     dc4:	128bb00f 	addne	r11, r11, #15
     dc8:	13cbbeff 	bicne	r11, r11, #4080	; 0xff0
     dcc:	028bb010 	addeq	r11, r11, #16
     dd0:	13cbb00f 	bicne	r11, r11, #15
     dd4:	e0842009 	add	r2, r4, r9
     dd8:	e1a00006 	mov	r0, r6
     ddc:	e1a0100b 	mov	r1, r11
     de0:	e58d2004 	str	r2, [sp, #4]
     de4:	eb00029b 	bl	1858 <_sbrk_r>
     de8:	e3700001 	cmn	r0, #1
     dec:	e1a08000 	mov	r8, r0
     df0:	e59d2004 	ldr	r2, [sp, #4]
     df4:	0a0000ba 	beq	10e4 <_malloc_r+0x5e0>
     df8:	e1520000 	cmp	r2, r0
     dfc:	8a0000b6 	bhi	10dc <_malloc_r+0x5d8>
     e00:	e59a3004 	ldr	r3, [r10, #4]
     e04:	e1520008 	cmp	r2, r8
     e08:	e08b3003 	add	r3, r11, r3
     e0c:	e58a3004 	str	r3, [r10, #4]
     e10:	0a0000e8 	beq	11b8 <_malloc_r+0x6b4>
     e14:	e5971408 	ldr	r1, [r7, #1032]	; 0x408
     e18:	e3710001 	cmn	r1, #1
     e1c:	10622008 	rsbne	r2, r2, r8
     e20:	e59f13fc 	ldr	r1, [pc, #1020]	; 1224 <_malloc_r+0x720>
     e24:	10833002 	addne	r3, r3, r2
     e28:	05818408 	streq	r8, [r1, #1032]	; 0x408
     e2c:	158a3004 	strne	r3, [r10, #4]
     e30:	e2183007 	ands	r3, r8, #7
     e34:	12632008 	rsbne	r2, r3, #8
     e38:	10888002 	addne	r8, r8, r2
     e3c:	12633a01 	rsbne	r3, r3, #4096	; 0x1000
     e40:	12832008 	addne	r2, r3, #8
     e44:	e088300b 	add	r3, r8, r11
     e48:	03a02a01 	moveq	r2, #4096	; 0x1000
     e4c:	e1a03a03 	lsl	r3, r3, #20
     e50:	e042ba23 	sub	r11, r2, r3, lsr #20
     e54:	e1a0100b 	mov	r1, r11
     e58:	e1a00006 	mov	r0, r6
     e5c:	eb00027d 	bl	1858 <_sbrk_r>
     e60:	e3700001 	cmn	r0, #1
     e64:	10682000 	rsbne	r2, r8, r0
     e68:	e59a3004 	ldr	r3, [r10, #4]
     e6c:	108b2002 	addne	r2, r11, r2
     e70:	03a0b000 	moveq	r11, #0
     e74:	13822001 	orrne	r2, r2, #1
     e78:	03a02001 	moveq	r2, #1
     e7c:	e08b3003 	add	r3, r11, r3
     e80:	e1540007 	cmp	r4, r7
     e84:	e5878008 	str	r8, [r7, #8]
     e88:	e58a3004 	str	r3, [r10, #4]
     e8c:	e5882004 	str	r2, [r8, #4]
     e90:	e59fb390 	ldr	r11, [pc, #912]	; 1228 <_malloc_r+0x724>
     e94:	0a00000d 	beq	ed0 <_malloc_r+0x3cc>
     e98:	e359000f 	cmp	r9, #15
     e9c:	9a0000b1 	bls	1168 <_malloc_r+0x664>
     ea0:	e5940004 	ldr	r0, [r4, #4]
     ea4:	e249200c 	sub	r2, r9, #12
     ea8:	e3c22007 	bic	r2, r2, #7
     eac:	e2000001 	and	r0, r0, #1
     eb0:	e1820000 	orr	r0, r2, r0
     eb4:	e3a01005 	mov	r1, #5
     eb8:	e352000f 	cmp	r2, #15
     ebc:	e0842002 	add	r2, r4, r2
     ec0:	e5840004 	str	r0, [r4, #4]
     ec4:	e5821004 	str	r1, [r2, #4]
     ec8:	e5821008 	str	r1, [r2, #8]
     ecc:	8a0000c0 	bhi	11d4 <_malloc_r+0x6d0>
     ed0:	e59a202c 	ldr	r2, [r10, #44]	; 0x2c
     ed4:	e1530002 	cmp	r3, r2
     ed8:	e59f2348 	ldr	r2, [pc, #840]	; 1228 <_malloc_r+0x724>
     edc:	8582302c 	strhi	r3, [r2, #44]	; 0x2c
     ee0:	e59a2030 	ldr	r2, [r10, #48]	; 0x30
     ee4:	e5974008 	ldr	r4, [r7, #8]
     ee8:	e1530002 	cmp	r3, r2
     eec:	95943004 	ldrls	r3, [r4, #4]
     ef0:	e59f2330 	ldr	r2, [pc, #816]	; 1228 <_malloc_r+0x724>
     ef4:	85941004 	ldrhi	r1, [r4, #4]
     ef8:	85823030 	strhi	r3, [r2, #48]	; 0x30
     efc:	93c33003 	bicls	r3, r3, #3
     f00:	83c13003 	bichi	r3, r1, #3
     f04:	e1550003 	cmp	r5, r3
     f08:	e0653003 	rsb	r3, r5, r3
     f0c:	8a000001 	bhi	f18 <_malloc_r+0x414>
     f10:	e353000f 	cmp	r3, #15
     f14:	ca000003 	bgt	f28 <_malloc_r+0x424>
     f18:	e1a00006 	mov	r0, r6
     f1c:	eb000182 	bl	152c <__malloc_unlock>
     f20:	e3a04000 	mov	r4, #0
     f24:	eaffff1d 	b	ba0 <_malloc_r+0x9c>
     f28:	e3852001 	orr	r2, r5, #1
     f2c:	e3833001 	orr	r3, r3, #1
     f30:	e0845005 	add	r5, r4, r5
     f34:	e5842004 	str	r2, [r4, #4]
     f38:	e1a00006 	mov	r0, r6
     f3c:	e5875008 	str	r5, [r7, #8]
     f40:	e5853004 	str	r3, [r5, #4]
     f44:	eb000178 	bl	152c <__malloc_unlock>
     f48:	e2844008 	add	r4, r4, #8
     f4c:	e1a00004 	mov	r0, r4
     f50:	e28dd00c 	add	sp, sp, #12
     f54:	e8bd4ff0 	pop	{r4, r5, r6, r7, r8, r9, r10, r11, lr}
     f58:	e12fff1e 	bx	lr
     f5c:	e0842002 	add	r2, r4, r2
     f60:	e592c004 	ldr	r12, [r2, #4]
     f64:	e2841008 	add	r1, r4, #8
     f68:	e891000a 	ldm	r1, {r1, r3}
     f6c:	e38cc001 	orr	r12, r12, #1
     f70:	e581300c 	str	r3, [r1, #12]
     f74:	e1a00006 	mov	r0, r6
     f78:	e5831008 	str	r1, [r3, #8]
     f7c:	e582c004 	str	r12, [r2, #4]
     f80:	eb000169 	bl	152c <__malloc_unlock>
     f84:	e2844008 	add	r4, r4, #8
     f88:	e1a00004 	mov	r0, r4
     f8c:	e28dd00c 	add	sp, sp, #12
     f90:	e8bd4ff0 	pop	{r4, r5, r6, r7, r8, r9, r10, r11, lr}
     f94:	e12fff1e 	bx	lr
     f98:	e35e0014 	cmp	lr, #20
     f9c:	928ee05b 	addls	lr, lr, #91	; 0x5b
     fa0:	91a0108e 	lslls	r1, lr, #1
     fa4:	9affff05 	bls	bc0 <_malloc_r+0xbc>
     fa8:	e35e0054 	cmp	lr, #84	; 0x54
     fac:	8a000067 	bhi	1150 <_malloc_r+0x64c>
     fb0:	e1a0e625 	lsr	lr, r5, #12
     fb4:	e28ee06e 	add	lr, lr, #110	; 0x6e
     fb8:	e1a0108e 	lsl	r1, lr, #1
     fbc:	eafffeff 	b	bc0 <_malloc_r+0xbc>
     fc0:	e1a034a2 	lsr	r3, r2, #9
     fc4:	e3530004 	cmp	r3, #4
     fc8:	9a00003f 	bls	10cc <_malloc_r+0x5c8>
     fcc:	e3530014 	cmp	r3, #20
     fd0:	9283105b 	addls	r1, r3, #91	; 0x5b
     fd4:	91a00081 	lslls	r0, r1, #1
     fd8:	9a000004 	bls	ff0 <_malloc_r+0x4ec>
     fdc:	e3530054 	cmp	r3, #84	; 0x54
     fe0:	8a000080 	bhi	11e8 <_malloc_r+0x6e4>
     fe4:	e1a01622 	lsr	r1, r2, #12
     fe8:	e281106e 	add	r1, r1, #110	; 0x6e
     fec:	e1a00081 	lsl	r0, r1, #1
     ff0:	e0870100 	add	r0, r7, r0, lsl #2
     ff4:	e5903008 	ldr	r3, [r0, #8]
     ff8:	e1530000 	cmp	r3, r0
     ffc:	e59fc220 	ldr	r12, [pc, #544]	; 1224 <_malloc_r+0x720>
    1000:	0a00005d 	beq	117c <_malloc_r+0x678>
    1004:	e5931004 	ldr	r1, [r3, #4]
    1008:	e3c11003 	bic	r1, r1, #3
    100c:	e1520001 	cmp	r2, r1
    1010:	2a000002 	bcs	1020 <_malloc_r+0x51c>
    1014:	e5933008 	ldr	r3, [r3, #8]
    1018:	e1500003 	cmp	r0, r3
    101c:	1afffff8 	bne	1004 <_malloc_r+0x500>
    1020:	e593200c 	ldr	r2, [r3, #12]
    1024:	e5971004 	ldr	r1, [r7, #4]
    1028:	e584200c 	str	r2, [r4, #12]
    102c:	e5843008 	str	r3, [r4, #8]
    1030:	e5824008 	str	r4, [r2, #8]
    1034:	e583400c 	str	r4, [r3, #12]
    1038:	eaffff0f 	b	c7c <_malloc_r+0x178>
    103c:	e385c001 	orr	r12, r5, #1
    1040:	e3812001 	orr	r2, r1, #1
    1044:	e0845005 	add	r5, r4, r5
    1048:	e584c004 	str	r12, [r4, #4]
    104c:	e1a00006 	mov	r0, r6
    1050:	e5835014 	str	r5, [r3, #20]
    1054:	e5835010 	str	r5, [r3, #16]
    1058:	e585800c 	str	r8, [r5, #12]
    105c:	e9850104 	stmib	r5, {r2, r8}
    1060:	e7851001 	str	r1, [r5, r1]
    1064:	e2844008 	add	r4, r4, #8
    1068:	eb00012f 	bl	152c <__malloc_unlock>
    106c:	eafffecb 	b	ba0 <_malloc_r+0x9c>
    1070:	e2899001 	add	r9, r9, #1
    1074:	e3190003 	tst	r9, #3
    1078:	e28cc008 	add	r12, r12, #8
    107c:	1affff11 	bne	cc8 <_malloc_r+0x1c4>
    1080:	ea00001f 	b	1104 <_malloc_r+0x600>
    1084:	e2843008 	add	r3, r4, #8
    1088:	e5944014 	ldr	r4, [r4, #20]
    108c:	e1530004 	cmp	r3, r4
    1090:	028ee002 	addeq	lr, lr, #2
    1094:	0afffedb 	beq	c08 <_malloc_r+0x104>
    1098:	eafffeb3 	b	b6c <_malloc_r+0x68>
    109c:	e0831001 	add	r1, r3, r1
    10a0:	e591c004 	ldr	r12, [r1, #4]
    10a4:	e1a04003 	mov	r4, r3
    10a8:	e5b42008 	ldr	r2, [r4, #8]!
    10ac:	e593300c 	ldr	r3, [r3, #12]
    10b0:	e38cc001 	orr	r12, r12, #1
    10b4:	e581c004 	str	r12, [r1, #4]
    10b8:	e1a00006 	mov	r0, r6
    10bc:	e582300c 	str	r3, [r2, #12]
    10c0:	e5832008 	str	r2, [r3, #8]
    10c4:	eb000118 	bl	152c <__malloc_unlock>
    10c8:	eafffeb4 	b	ba0 <_malloc_r+0x9c>
    10cc:	e1a01322 	lsr	r1, r2, #6
    10d0:	e2811038 	add	r1, r1, #56	; 0x38
    10d4:	e1a00081 	lsl	r0, r1, #1
    10d8:	eaffffc4 	b	ff0 <_malloc_r+0x4ec>
    10dc:	e1540007 	cmp	r4, r7
    10e0:	0affff46 	beq	e00 <_malloc_r+0x2fc>
    10e4:	e5974008 	ldr	r4, [r7, #8]
    10e8:	e5943004 	ldr	r3, [r4, #4]
    10ec:	e3c33003 	bic	r3, r3, #3
    10f0:	eaffff83 	b	f04 <_malloc_r+0x400>
    10f4:	e5944000 	ldr	r4, [r4]
    10f8:	e1540003 	cmp	r4, r3
    10fc:	e24ee001 	sub	lr, lr, #1
    1100:	1a000045 	bne	121c <_malloc_r+0x718>
    1104:	e31e0003 	tst	lr, #3
    1108:	e2443008 	sub	r3, r4, #8
    110c:	1afffff8 	bne	10f4 <_malloc_r+0x5f0>
    1110:	e5973004 	ldr	r3, [r7, #4]
    1114:	e1c33000 	bic	r3, r3, r0
    1118:	e5873004 	str	r3, [r7, #4]
    111c:	e1a00080 	lsl	r0, r0, #1
    1120:	e1500003 	cmp	r0, r3
    1124:	8affff18 	bhi	d8c <_malloc_r+0x288>
    1128:	e3500000 	cmp	r0, #0
    112c:	0affff16 	beq	d8c <_malloc_r+0x288>
    1130:	e1130000 	tst	r3, r0
    1134:	e1a0e009 	mov	lr, r9
    1138:	1afffedf 	bne	cbc <_malloc_r+0x1b8>
    113c:	e1a00080 	lsl	r0, r0, #1
    1140:	e1130000 	tst	r3, r0
    1144:	e28ee004 	add	lr, lr, #4
    1148:	0afffffb 	beq	113c <_malloc_r+0x638>
    114c:	eafffeda 	b	cbc <_malloc_r+0x1b8>
    1150:	e35e0f55 	cmp	lr, #340	; 0x154
    1154:	8a00000f 	bhi	1198 <_malloc_r+0x694>
    1158:	e1a0e7a5 	lsr	lr, r5, #15
    115c:	e28ee077 	add	lr, lr, #119	; 0x77
    1160:	e1a0108e 	lsl	r1, lr, #1
    1164:	eafffe95 	b	bc0 <_malloc_r+0xbc>
    1168:	e3a03001 	mov	r3, #1
    116c:	e5883004 	str	r3, [r8, #4]
    1170:	e1a04008 	mov	r4, r8
    1174:	e3a03000 	mov	r3, #0
    1178:	eaffff61 	b	f04 <_malloc_r+0x400>
    117c:	e59c2004 	ldr	r2, [r12, #4]
    1180:	e1a01141 	asr	r1, r1, #2
    1184:	e3a00001 	mov	r0, #1
    1188:	e1821110 	orr	r1, r2, r0, lsl r1
    118c:	e1a02003 	mov	r2, r3
    1190:	e58c1004 	str	r1, [r12, #4]
    1194:	eaffffa3 	b	1028 <_malloc_r+0x524>
    1198:	e59f308c 	ldr	r3, [pc, #140]	; 122c <_malloc_r+0x728>
    119c:	e15e0003 	cmp	lr, r3
    11a0:	91a0e925 	lsrls	lr, r5, #18
    11a4:	928ee07c 	addls	lr, lr, #124	; 0x7c
    11a8:	91a0108e 	lslls	r1, lr, #1
    11ac:	83a010fc 	movhi	r1, #252	; 0xfc
    11b0:	83a0e07e 	movhi	lr, #126	; 0x7e
    11b4:	eafffe81 	b	bc0 <_malloc_r+0xbc>
    11b8:	e1b01a02 	lsls	r1, r2, #20
    11bc:	1affff14 	bne	e14 <_malloc_r+0x310>
    11c0:	e08b1009 	add	r1, r11, r9
    11c4:	e5972008 	ldr	r2, [r7, #8]
    11c8:	e3811001 	orr	r1, r1, #1
    11cc:	e5821004 	str	r1, [r2, #4]
    11d0:	eaffff3e 	b	ed0 <_malloc_r+0x3cc>
    11d4:	e2841008 	add	r1, r4, #8
    11d8:	e1a00006 	mov	r0, r6
    11dc:	eb00132f 	bl	5ea0 <_free_r>
    11e0:	e59b3004 	ldr	r3, [r11, #4]
    11e4:	eaffff39 	b	ed0 <_malloc_r+0x3cc>
    11e8:	e3530f55 	cmp	r3, #340	; 0x154
    11ec:	91a017a2 	lsrls	r1, r2, #15
    11f0:	92811077 	addls	r1, r1, #119	; 0x77
    11f4:	91a00081 	lslls	r0, r1, #1
    11f8:	9affff7c 	bls	ff0 <_malloc_r+0x4ec>
    11fc:	e59f1028 	ldr	r1, [pc, #40]	; 122c <_malloc_r+0x728>
    1200:	e1530001 	cmp	r3, r1
    1204:	91a01922 	lsrls	r1, r2, #18
    1208:	9281107c 	addls	r1, r1, #124	; 0x7c
    120c:	91a00081 	lslls	r0, r1, #1
    1210:	83a000fc 	movhi	r0, #252	; 0xfc
    1214:	83a0107e 	movhi	r1, #126	; 0x7e
    1218:	eaffff74 	b	ff0 <_malloc_r+0x4ec>
    121c:	e5973004 	ldr	r3, [r7, #4]
    1220:	eaffffbd 	b	111c <_malloc_r+0x618>
    1224:	0000bf68 	.word	0x0000bf68
    1228:	0000c424 	.word	0x0000c424
    122c:	00000554 	.word	0x00000554

00001230 <memchr>:
    1230:	e3100003 	tst	r0, #3
    1234:	e92d0070 	push	{r4, r5, r6}
    1238:	e20110ff 	and	r1, r1, #255	; 0xff
    123c:	0a00003a 	beq	132c <memchr+0xfc>
    1240:	e3520000 	cmp	r2, #0
    1244:	e242c001 	sub	r12, r2, #1
    1248:	0a000021 	beq	12d4 <memchr+0xa4>
    124c:	e5d03000 	ldrb	r3, [r0]
    1250:	e1530001 	cmp	r3, r1
    1254:	0a00001f 	beq	12d8 <memchr+0xa8>
    1258:	e2803001 	add	r3, r0, #1
    125c:	ea000006 	b	127c <memchr+0x4c>
    1260:	e35c0000 	cmp	r12, #0
    1264:	0a00001a 	beq	12d4 <memchr+0xa4>
    1268:	e5d02000 	ldrb	r2, [r0]
    126c:	e1520001 	cmp	r2, r1
    1270:	e2833001 	add	r3, r3, #1
    1274:	e24cc001 	sub	r12, r12, #1
    1278:	0a000016 	beq	12d8 <memchr+0xa8>
    127c:	e3130003 	tst	r3, #3
    1280:	e1a00003 	mov	r0, r3
    1284:	1afffff5 	bne	1260 <memchr+0x30>
    1288:	e35c0003 	cmp	r12, #3
    128c:	8a000013 	bhi	12e0 <memchr+0xb0>
    1290:	e35c0000 	cmp	r12, #0
    1294:	e24c4001 	sub	r4, r12, #1
    1298:	0a000025 	beq	1334 <memchr+0x104>
    129c:	e5d03000 	ldrb	r3, [r0]
    12a0:	e1530001 	cmp	r3, r1
    12a4:	0a00000b 	beq	12d8 <memchr+0xa8>
    12a8:	e2802001 	add	r2, r0, #1
    12ac:	e3a03000 	mov	r3, #0
    12b0:	ea000004 	b	12c8 <memchr+0x98>
    12b4:	e5d0c000 	ldrb	r12, [r0]
    12b8:	e15c0001 	cmp	r12, r1
    12bc:	e2822001 	add	r2, r2, #1
    12c0:	e2833001 	add	r3, r3, #1
    12c4:	0a000003 	beq	12d8 <memchr+0xa8>
    12c8:	e1530004 	cmp	r3, r4
    12cc:	e1a00002 	mov	r0, r2
    12d0:	1afffff7 	bne	12b4 <memchr+0x84>
    12d4:	e3a00000 	mov	r0, #0
    12d8:	e8bd0070 	pop	{r4, r5, r6}
    12dc:	e12fff1e 	bx	lr
    12e0:	e1816401 	orr	r6, r1, r1, lsl #8
    12e4:	e1a03000 	mov	r3, r0
    12e8:	e1866806 	orr	r6, r6, r6, lsl #16
    12ec:	e5935000 	ldr	r5, [r3]
    12f0:	e59f4044 	ldr	r4, [pc, #68]	; 133c <memchr+0x10c>
    12f4:	e0265005 	eor	r5, r6, r5
    12f8:	e0854004 	add	r4, r5, r4
    12fc:	e59f203c 	ldr	r2, [pc, #60]	; 1340 <memchr+0x110>
    1300:	e1c44005 	bic	r4, r4, r5
    1304:	e0042002 	and	r2, r4, r2
    1308:	e3520000 	cmp	r2, #0
    130c:	e1a00003 	mov	r0, r3
    1310:	e2833004 	add	r3, r3, #4
    1314:	1affffdd 	bne	1290 <memchr+0x60>
    1318:	e24cc004 	sub	r12, r12, #4
    131c:	e35c0003 	cmp	r12, #3
    1320:	e1a00003 	mov	r0, r3
    1324:	8afffff0 	bhi	12ec <memchr+0xbc>
    1328:	eaffffd8 	b	1290 <memchr+0x60>
    132c:	e1a0c002 	mov	r12, r2
    1330:	eaffffd4 	b	1288 <memchr+0x58>
    1334:	e1a0000c 	mov	r0, r12
    1338:	eaffffe6 	b	12d8 <memchr+0xa8>
    133c:	fefefeff 	.word	0xfefefeff
    1340:	80808080 	.word	0x80808080

00001344 <memcpy>:
    1344:	e352000f 	cmp	r2, #15
    1348:	e92d00f0 	push	{r4, r5, r6, r7}
    134c:	9a00002a 	bls	13fc <memcpy+0xb8>
    1350:	e1803001 	orr	r3, r0, r1
    1354:	e3130003 	tst	r3, #3
    1358:	1a000031 	bne	1424 <memcpy+0xe0>
    135c:	e2426010 	sub	r6, r2, #16
    1360:	e1a06226 	lsr	r6, r6, #4
    1364:	e0805206 	add	r5, r0, r6, lsl #4
    1368:	e2855010 	add	r5, r5, #16
    136c:	e1a0c001 	mov	r12, r1
    1370:	e1a03000 	mov	r3, r0
    1374:	e59c4000 	ldr	r4, [r12]
    1378:	e5834000 	str	r4, [r3]
    137c:	e59c4004 	ldr	r4, [r12, #4]
    1380:	e5834004 	str	r4, [r3, #4]
    1384:	e59c4008 	ldr	r4, [r12, #8]
    1388:	e5834008 	str	r4, [r3, #8]
    138c:	e59c400c 	ldr	r4, [r12, #12]
    1390:	e2833010 	add	r3, r3, #16
    1394:	e5034004 	str	r4, [r3, #-4]
    1398:	e1530005 	cmp	r3, r5
    139c:	e28cc010 	add	r12, r12, #16
    13a0:	1afffff3 	bne	1374 <memcpy+0x30>
    13a4:	e2863001 	add	r3, r6, #1
    13a8:	e202700f 	and	r7, r2, #15
    13ac:	e1a03203 	lsl	r3, r3, #4
    13b0:	e3570003 	cmp	r7, #3
    13b4:	e0811003 	add	r1, r1, r3
    13b8:	e0803003 	add	r3, r0, r3
    13bc:	9a00001a 	bls	142c <memcpy+0xe8>
    13c0:	e1a05001 	mov	r5, r1
    13c4:	e1a04003 	mov	r4, r3
    13c8:	e1a0c007 	mov	r12, r7
    13cc:	e24cc004 	sub	r12, r12, #4
    13d0:	e4956004 	ldr	r6, [r5], #4
    13d4:	e35c0003 	cmp	r12, #3
    13d8:	e4846004 	str	r6, [r4], #4
    13dc:	8afffffa 	bhi	13cc <memcpy+0x88>
    13e0:	e247c004 	sub	r12, r7, #4
    13e4:	e3ccc003 	bic	r12, r12, #3
    13e8:	e28cc004 	add	r12, r12, #4
    13ec:	e083300c 	add	r3, r3, r12
    13f0:	e081100c 	add	r1, r1, r12
    13f4:	e2022003 	and	r2, r2, #3
    13f8:	ea000000 	b	1400 <memcpy+0xbc>
    13fc:	e1a03000 	mov	r3, r0
    1400:	e3520000 	cmp	r2, #0
    1404:	0a000004 	beq	141c <memcpy+0xd8>
    1408:	e0812002 	add	r2, r1, r2
    140c:	e4d1c001 	ldrb	r12, [r1], #1
    1410:	e1510002 	cmp	r1, r2
    1414:	e4c3c001 	strb	r12, [r3], #1
    1418:	1afffffb 	bne	140c <memcpy+0xc8>
    141c:	e8bd00f0 	pop	{r4, r5, r6, r7}
    1420:	e12fff1e 	bx	lr
    1424:	e1a03000 	mov	r3, r0
    1428:	eafffff6 	b	1408 <memcpy+0xc4>
    142c:	e1a02007 	mov	r2, r7
    1430:	eafffff2 	b	1400 <memcpy+0xbc>

00001434 <memset>:
    1434:	e3100003 	tst	r0, #3
    1438:	e92d0070 	push	{r4, r5, r6}
    143c:	0a000037 	beq	1520 <memset+0xec>
    1440:	e3520000 	cmp	r2, #0
    1444:	e2422001 	sub	r2, r2, #1
    1448:	0a000032 	beq	1518 <memset+0xe4>
    144c:	e201c0ff 	and	r12, r1, #255	; 0xff
    1450:	e1a03000 	mov	r3, r0
    1454:	ea000002 	b	1464 <memset+0x30>
    1458:	e3520000 	cmp	r2, #0
    145c:	e2422001 	sub	r2, r2, #1
    1460:	0a00002c 	beq	1518 <memset+0xe4>
    1464:	e4c3c001 	strb	r12, [r3], #1
    1468:	e3130003 	tst	r3, #3
    146c:	1afffff9 	bne	1458 <memset+0x24>
    1470:	e3520003 	cmp	r2, #3
    1474:	9a000020 	bls	14fc <memset+0xc8>
    1478:	e20140ff 	and	r4, r1, #255	; 0xff
    147c:	e1844404 	orr	r4, r4, r4, lsl #8
    1480:	e352000f 	cmp	r2, #15
    1484:	e1844804 	orr	r4, r4, r4, lsl #16
    1488:	9a000010 	bls	14d0 <memset+0x9c>
    148c:	e2426010 	sub	r6, r2, #16
    1490:	e1a06226 	lsr	r6, r6, #4
    1494:	e2835010 	add	r5, r3, #16
    1498:	e0855206 	add	r5, r5, r6, lsl #4
    149c:	e1a0c003 	mov	r12, r3
    14a0:	e58c4000 	str	r4, [r12]
    14a4:	e58c4004 	str	r4, [r12, #4]
    14a8:	e58c4008 	str	r4, [r12, #8]
    14ac:	e58c400c 	str	r4, [r12, #12]
    14b0:	e28cc010 	add	r12, r12, #16
    14b4:	e15c0005 	cmp	r12, r5
    14b8:	1afffff8 	bne	14a0 <memset+0x6c>
    14bc:	e202200f 	and	r2, r2, #15
    14c0:	e2866001 	add	r6, r6, #1
    14c4:	e3520003 	cmp	r2, #3
    14c8:	e0833206 	add	r3, r3, r6, lsl #4
    14cc:	9a00000a 	bls	14fc <memset+0xc8>
    14d0:	e1a05003 	mov	r5, r3
    14d4:	e1a0c002 	mov	r12, r2
    14d8:	e24cc004 	sub	r12, r12, #4
    14dc:	e35c0003 	cmp	r12, #3
    14e0:	e4854004 	str	r4, [r5], #4
    14e4:	8afffffb 	bhi	14d8 <memset+0xa4>
    14e8:	e242c004 	sub	r12, r2, #4
    14ec:	e3ccc003 	bic	r12, r12, #3
    14f0:	e28cc004 	add	r12, r12, #4
    14f4:	e083300c 	add	r3, r3, r12
    14f8:	e2022003 	and	r2, r2, #3
    14fc:	e3520000 	cmp	r2, #0
    1500:	120110ff 	andne	r1, r1, #255	; 0xff
    1504:	10832002 	addne	r2, r3, r2
    1508:	0a000002 	beq	1518 <memset+0xe4>
    150c:	e4c31001 	strb	r1, [r3], #1
    1510:	e1530002 	cmp	r3, r2
    1514:	1afffffc 	bne	150c <memset+0xd8>
    1518:	e8bd0070 	pop	{r4, r5, r6}
    151c:	e12fff1e 	bx	lr
    1520:	e1a03000 	mov	r3, r0
    1524:	eaffffd1 	b	1470 <memset+0x3c>

00001528 <__malloc_lock>:
    1528:	e12fff1e 	bx	lr

0000152c <__malloc_unlock>:
    152c:	e12fff1e 	bx	lr

00001530 <_printf_r>:
    1530:	e92d000e 	push	{r1, r2, r3}
    1534:	e52de004 	push	{lr}		; (str lr, [sp, #-4]!)
    1538:	e24dd008 	sub	sp, sp, #8
    153c:	e28dc010 	add	r12, sp, #16
    1540:	e1a0300c 	mov	r3, r12
    1544:	e5901008 	ldr	r1, [r0, #8]
    1548:	e59d200c 	ldr	r2, [sp, #12]
    154c:	e58dc004 	str	r12, [sp, #4]
    1550:	eb00019d 	bl	1bcc <_vfprintf_r>
    1554:	e28dd008 	add	sp, sp, #8
    1558:	e49de004 	pop	{lr}		; (ldr lr, [sp], #4)
    155c:	e28dd00c 	add	sp, sp, #12
    1560:	e12fff1e 	bx	lr

00001564 <printf>:
    1564:	e92d000f 	push	{r0, r1, r2, r3}
    1568:	e52de004 	push	{lr}		; (str lr, [sp, #-4]!)
    156c:	e59f302c 	ldr	r3, [pc, #44]	; 15a0 <printf+0x3c>
    1570:	e24dd00c 	sub	sp, sp, #12
    1574:	e5930000 	ldr	r0, [r3]
    1578:	e28dc014 	add	r12, sp, #20
    157c:	e5901008 	ldr	r1, [r0, #8]
    1580:	e1a0300c 	mov	r3, r12
    1584:	e59d2010 	ldr	r2, [sp, #16]
    1588:	e58dc004 	str	r12, [sp, #4]
    158c:	eb00018e 	bl	1bcc <_vfprintf_r>
    1590:	e28dd00c 	add	sp, sp, #12
    1594:	e49de004 	pop	{lr}		; (ldr lr, [sp], #4)
    1598:	e28dd010 	add	sp, sp, #16
    159c:	e12fff1e 	bx	lr
    15a0:	0000bb38 	.word	0x0000bb38

000015a4 <_puts_r>:
    15a4:	e92d40f0 	push	{r4, r5, r6, r7, lr}
    15a8:	e1a04000 	mov	r4, r0
    15ac:	e24dd024 	sub	sp, sp, #36	; 0x24
    15b0:	e1a00001 	mov	r0, r1
    15b4:	e1a05001 	mov	r5, r1
    15b8:	eb0000ed 	bl	1974 <strlen>
    15bc:	e5943008 	ldr	r3, [r4, #8]
    15c0:	e1d320bc 	ldrh	r2, [r3, #12]
    15c4:	e3a01002 	mov	r1, #2
    15c8:	e3120a02 	tst	r2, #8192	; 0x2000
    15cc:	e58d1008 	str	r1, [sp, #8]
    15d0:	05931064 	ldreq	r1, [r3, #100]	; 0x64
    15d4:	03822a02 	orreq	r2, r2, #8192	; 0x2000
    15d8:	03c11a02 	biceq	r1, r1, #8192	; 0x2000
    15dc:	e3a0e001 	mov	lr, #1
    15e0:	e59f604c 	ldr	r6, [pc, #76]	; 1634 <_puts_r+0x90>
    15e4:	05831064 	streq	r1, [r3, #100]	; 0x64
    15e8:	e2807001 	add	r7, r0, #1
    15ec:	e28dc010 	add	r12, sp, #16
    15f0:	e58d0014 	str	r0, [sp, #20]
    15f4:	e58de01c 	str	lr, [sp, #28]
    15f8:	e1a00004 	mov	r0, r4
    15fc:	01c320bc 	strheq	r2, [r3, #12]
    1600:	e1a01003 	mov	r1, r3
    1604:	e28d2004 	add	r2, sp, #4
    1608:	e58d5010 	str	r5, [sp, #16]
    160c:	e58d700c 	str	r7, [sp, #12]
    1610:	e58d6018 	str	r6, [sp, #24]
    1614:	e58dc004 	str	r12, [sp, #4]
    1618:	eb0012bb 	bl	610c <__sfvwrite_r>
    161c:	e3500000 	cmp	r0, #0
    1620:	03a0000a 	moveq	r0, #10
    1624:	13e00000 	mvnne	r0, #0
    1628:	e28dd024 	add	sp, sp, #36	; 0x24
    162c:	e8bd40f0 	pop	{r4, r5, r6, r7, lr}
    1630:	e12fff1e 	bx	lr
    1634:	0000b800 	.word	0x0000b800

00001638 <puts>:
    1638:	e59f3008 	ldr	r3, [pc, #8]	; 1648 <puts+0x10>
    163c:	e1a01000 	mov	r1, r0
    1640:	e5930000 	ldr	r0, [r3]
    1644:	eaffffd6 	b	15a4 <_puts_r>
    1648:	0000bb38 	.word	0x0000bb38

0000164c <lflush>:
    164c:	e92d4008 	push	{r3, lr}
    1650:	e1d030bc 	ldrh	r3, [r0, #12]
    1654:	e2033009 	and	r3, r3, #9
    1658:	e3530009 	cmp	r3, #9
    165c:	13a00000 	movne	r0, #0
    1660:	0a000001 	beq	166c <lflush+0x20>
    1664:	e8bd4008 	pop	{r3, lr}
    1668:	e12fff1e 	bx	lr
    166c:	eb0011aa 	bl	5d1c <fflush>
    1670:	e8bd4008 	pop	{r3, lr}
    1674:	e12fff1e 	bx	lr

00001678 <__srefill_r>:
    1678:	e92d40f8 	push	{r3, r4, r5, r6, r7, lr}
    167c:	e2505000 	subs	r5, r0, #0
    1680:	e1a04001 	mov	r4, r1
    1684:	0a000002 	beq	1694 <__srefill_r+0x1c>
    1688:	e5953038 	ldr	r3, [r5, #56]	; 0x38
    168c:	e3530000 	cmp	r3, #0
    1690:	0a00003e 	beq	1790 <__srefill_r+0x118>
    1694:	e1d420bc 	ldrh	r2, [r4, #12]
    1698:	e3120a02 	tst	r2, #8192	; 0x2000
    169c:	e1a03002 	mov	r3, r2
    16a0:	1a000005 	bne	16bc <__srefill_r+0x44>
    16a4:	e5943064 	ldr	r3, [r4, #100]	; 0x64
    16a8:	e3822a02 	orr	r2, r2, #8192	; 0x2000
    16ac:	e3c33a02 	bic	r3, r3, #8192	; 0x2000
    16b0:	e1c420bc 	strh	r2, [r4, #12]
    16b4:	e5843064 	str	r3, [r4, #100]	; 0x64
    16b8:	e1a03002 	mov	r3, r2
    16bc:	e3a01000 	mov	r1, #0
    16c0:	e3130020 	tst	r3, #32
    16c4:	e5841004 	str	r1, [r4, #4]
    16c8:	1a00002d 	bne	1784 <__srefill_r+0x10c>
    16cc:	e3130004 	tst	r3, #4
    16d0:	0a000020 	beq	1758 <__srefill_r+0xe0>
    16d4:	e5941030 	ldr	r1, [r4, #48]	; 0x30
    16d8:	e3510000 	cmp	r1, #0
    16dc:	0a000009 	beq	1708 <__srefill_r+0x90>
    16e0:	e2843040 	add	r3, r4, #64	; 0x40
    16e4:	e1510003 	cmp	r1, r3
    16e8:	11a00005 	movne	r0, r5
    16ec:	1b0011eb 	blne	5ea0 <_free_r>
    16f0:	e594303c 	ldr	r3, [r4, #60]	; 0x3c
    16f4:	e3a00000 	mov	r0, #0
    16f8:	e1530000 	cmp	r3, r0
    16fc:	e5843004 	str	r3, [r4, #4]
    1700:	e5840030 	str	r0, [r4, #48]	; 0x30
    1704:	1a000039 	bne	17f0 <__srefill_r+0x178>
    1708:	e5943010 	ldr	r3, [r4, #16]
    170c:	e3530000 	cmp	r3, #0
    1710:	0a000044 	beq	1828 <__srefill_r+0x1b0>
    1714:	e1d460bc 	ldrh	r6, [r4, #12]
    1718:	e3160003 	tst	r6, #3
    171c:	1a00001d 	bne	1798 <__srefill_r+0x120>
    1720:	e5942010 	ldr	r2, [r4, #16]
    1724:	e1a00005 	mov	r0, r5
    1728:	e5842000 	str	r2, [r4]
    172c:	e594101c 	ldr	r1, [r4, #28]
    1730:	e5943014 	ldr	r3, [r4, #20]
    1734:	e594c020 	ldr	r12, [r4, #32]
    1738:	e1a0e00f 	mov	lr, pc
    173c:	e12fff1c 	bx	r12
    1740:	e3500000 	cmp	r0, #0
    1744:	e5840004 	str	r0, [r4, #4]
    1748:	c3a00000 	movgt	r0, #0
    174c:	da000008 	ble	1774 <__srefill_r+0xfc>
    1750:	e8bd40f8 	pop	{r3, r4, r5, r6, r7, lr}
    1754:	e12fff1e 	bx	lr
    1758:	e3130010 	tst	r3, #16
    175c:	0a000035 	beq	1838 <__srefill_r+0x1c0>
    1760:	e3130008 	tst	r3, #8
    1764:	1a000025 	bne	1800 <__srefill_r+0x188>
    1768:	e3822004 	orr	r2, r2, #4
    176c:	e1c420bc 	strh	r2, [r4, #12]
    1770:	eaffffe4 	b	1708 <__srefill_r+0x90>
    1774:	1a000015 	bne	17d0 <__srefill_r+0x158>
    1778:	e1d430bc 	ldrh	r3, [r4, #12]
    177c:	e3833020 	orr	r3, r3, #32
    1780:	e1c430bc 	strh	r3, [r4, #12]
    1784:	e3e00000 	mvn	r0, #0
    1788:	e8bd40f8 	pop	{r3, r4, r5, r6, r7, lr}
    178c:	e12fff1e 	bx	lr
    1790:	ebfffbe9 	bl	73c <__sinit>
    1794:	eaffffbe 	b	1694 <__srefill_r+0x1c>
    1798:	e59f20b0 	ldr	r2, [pc, #176]	; 1850 <__srefill_r+0x1d8>
    179c:	e3a03001 	mov	r3, #1
    17a0:	e5920000 	ldr	r0, [r2]
    17a4:	e1c430bc 	strh	r3, [r4, #12]
    17a8:	e59f10a4 	ldr	r1, [pc, #164]	; 1854 <__srefill_r+0x1dc>
    17ac:	e2067009 	and	r7, r6, #9
    17b0:	ebfffc8f 	bl	9f4 <_fwalk>
    17b4:	e3570009 	cmp	r7, #9
    17b8:	e1c460bc 	strh	r6, [r4, #12]
    17bc:	1affffd7 	bne	1720 <__srefill_r+0xa8>
    17c0:	e1a00005 	mov	r0, r5
    17c4:	e1a01004 	mov	r1, r4
    17c8:	eb0010ad 	bl	5a84 <__sflush_r>
    17cc:	eaffffd3 	b	1720 <__srefill_r+0xa8>
    17d0:	e1d420bc 	ldrh	r2, [r4, #12]
    17d4:	e3a03000 	mov	r3, #0
    17d8:	e3822040 	orr	r2, r2, #64	; 0x40
    17dc:	e1c420bc 	strh	r2, [r4, #12]
    17e0:	e5843004 	str	r3, [r4, #4]
    17e4:	e3e00000 	mvn	r0, #0
    17e8:	e8bd40f8 	pop	{r3, r4, r5, r6, r7, lr}
    17ec:	e12fff1e 	bx	lr
    17f0:	e5943038 	ldr	r3, [r4, #56]	; 0x38
    17f4:	e5843000 	str	r3, [r4]
    17f8:	e8bd40f8 	pop	{r3, r4, r5, r6, r7, lr}
    17fc:	e12fff1e 	bx	lr
    1800:	e1a00005 	mov	r0, r5
    1804:	e1a01004 	mov	r1, r4
    1808:	eb00112e 	bl	5cc8 <_fflush_r>
    180c:	e3500000 	cmp	r0, #0
    1810:	1affffdb 	bne	1784 <__srefill_r+0x10c>
    1814:	e1d420bc 	ldrh	r2, [r4, #12]
    1818:	e5840008 	str	r0, [r4, #8]
    181c:	e5840018 	str	r0, [r4, #24]
    1820:	e3c22008 	bic	r2, r2, #8
    1824:	eaffffcf 	b	1768 <__srefill_r+0xf0>
    1828:	e1a00005 	mov	r0, r5
    182c:	e1a01004 	mov	r1, r4
    1830:	eb0013ae 	bl	66f0 <__smakebuf_r>
    1834:	eaffffb6 	b	1714 <__srefill_r+0x9c>
    1838:	e3822040 	orr	r2, r2, #64	; 0x40
    183c:	e3a03009 	mov	r3, #9
    1840:	e5853000 	str	r3, [r5]
    1844:	e3e00000 	mvn	r0, #0
    1848:	e1c420bc 	strh	r2, [r4, #12]
    184c:	eaffffbf 	b	1750 <__srefill_r+0xd8>
    1850:	0000b804 	.word	0x0000b804
    1854:	0000164c 	.word	0x0000164c

00001858 <_sbrk_r>:
    1858:	e92d4038 	push	{r3, r4, r5, lr}
    185c:	e59f4034 	ldr	r4, [pc, #52]	; 1898 <_sbrk_r+0x40>
    1860:	e3a03000 	mov	r3, #0
    1864:	e1a05000 	mov	r5, r0
    1868:	e1a00001 	mov	r0, r1
    186c:	e5843000 	str	r3, [r4]
    1870:	eb00267c 	bl	b268 <_sbrk>
    1874:	e3700001 	cmn	r0, #1
    1878:	0a000001 	beq	1884 <_sbrk_r+0x2c>
    187c:	e8bd4038 	pop	{r3, r4, r5, lr}
    1880:	e12fff1e 	bx	lr
    1884:	e5943000 	ldr	r3, [r4]
    1888:	e3530000 	cmp	r3, #0
    188c:	15853000 	strne	r3, [r5]
    1890:	e8bd4038 	pop	{r3, r4, r5, lr}
    1894:	e12fff1e 	bx	lr
    1898:	0000c464 	.word	0x0000c464

0000189c <__sread>:
    189c:	e92d4010 	push	{r4, lr}
    18a0:	e1a04001 	mov	r4, r1
    18a4:	e1d110fe 	ldrsh	r1, [r1, #14]
    18a8:	eb001785 	bl	76c4 <_read_r>
    18ac:	e3500000 	cmp	r0, #0
    18b0:	a5943050 	ldrge	r3, [r4, #80]	; 0x50
    18b4:	b1d430bc 	ldrhlt	r3, [r4, #12]
    18b8:	a0833000 	addge	r3, r3, r0
    18bc:	b3c33a01 	biclt	r3, r3, #4096	; 0x1000
    18c0:	a5843050 	strge	r3, [r4, #80]	; 0x50
    18c4:	b1c430bc 	strhlt	r3, [r4, #12]
    18c8:	e8bd4010 	pop	{r4, lr}
    18cc:	e12fff1e 	bx	lr

000018d0 <__seofread>:
    18d0:	e3a00000 	mov	r0, #0
    18d4:	e12fff1e 	bx	lr

000018d8 <__swrite>:
    18d8:	e92d40f8 	push	{r3, r4, r5, r6, r7, lr}
    18dc:	e1a04001 	mov	r4, r1
    18e0:	e1d110bc 	ldrh	r1, [r1, #12]
    18e4:	e3110c01 	tst	r1, #256	; 0x100
    18e8:	e1a06002 	mov	r6, r2
    18ec:	e1a05003 	mov	r5, r3
    18f0:	e1a07000 	mov	r7, r0
    18f4:	0a000004 	beq	190c <__swrite+0x34>
    18f8:	e1d410fe 	ldrsh	r1, [r4, #14]
    18fc:	e3a02000 	mov	r2, #0
    1900:	e3a03002 	mov	r3, #2
    1904:	eb001368 	bl	66ac <_lseek_r>
    1908:	e1d410bc 	ldrh	r1, [r4, #12]
    190c:	e3c11a01 	bic	r1, r1, #4096	; 0x1000
    1910:	e1c410bc 	strh	r1, [r4, #12]
    1914:	e1a00007 	mov	r0, r7
    1918:	e1d410fe 	ldrsh	r1, [r4, #14]
    191c:	e1a02006 	mov	r2, r6
    1920:	e1a03005 	mov	r3, r5
    1924:	eb0008c6 	bl	3c44 <_write_r>
    1928:	e8bd40f8 	pop	{r3, r4, r5, r6, r7, lr}
    192c:	e12fff1e 	bx	lr

00001930 <__sseek>:
    1930:	e92d4010 	push	{r4, lr}
    1934:	e1a04001 	mov	r4, r1
    1938:	e1d110fe 	ldrsh	r1, [r1, #14]
    193c:	eb00135a 	bl	66ac <_lseek_r>
    1940:	e1d430bc 	ldrh	r3, [r4, #12]
    1944:	e3700001 	cmn	r0, #1
    1948:	03c33a01 	biceq	r3, r3, #4096	; 0x1000
    194c:	13833a01 	orrne	r3, r3, #4096	; 0x1000
    1950:	15840050 	strne	r0, [r4, #80]	; 0x50
    1954:	e1c430bc 	strh	r3, [r4, #12]
    1958:	e8bd4010 	pop	{r4, lr}
    195c:	e12fff1e 	bx	lr

00001960 <__sclose>:
    1960:	e92d4008 	push	{r3, lr}
    1964:	e1d110fe 	ldrsh	r1, [r1, #14]
    1968:	eb0009be 	bl	4068 <_close_r>
    196c:	e8bd4008 	pop	{r3, lr}
    1970:	e12fff1e 	bx	lr

00001974 <strlen>:
    1974:	e3c01003 	bic	r1, r0, #3
    1978:	e2100003 	ands	r0, r0, #3
    197c:	e2600000 	rsb	r0, r0, #0
    1980:	e4913004 	ldr	r3, [r1], #4
    1984:	e280c004 	add	r12, r0, #4
    1988:	e1a0c18c 	lsl	r12, r12, #3
    198c:	e3e02000 	mvn	r2, #0
    1990:	11833c32 	orrne	r3, r3, r2, lsr r12
    1994:	e3a0c001 	mov	r12, #1
    1998:	e18cc40c 	orr	r12, r12, r12, lsl #8
    199c:	e18cc80c 	orr	r12, r12, r12, lsl #16
    19a0:	e043200c 	sub	r2, r3, r12
    19a4:	e1c22003 	bic	r2, r2, r3
    19a8:	e012238c 	ands	r2, r2, r12, lsl #7
    19ac:	04913004 	ldreq	r3, [r1], #4
    19b0:	02800004 	addeq	r0, r0, #4
    19b4:	0afffff9 	beq	19a0 <strlen+0x2c>
    19b8:	e31300ff 	tst	r3, #255	; 0xff
    19bc:	12800001 	addne	r0, r0, #1
    19c0:	13130cff 	tstne	r3, #65280	; 0xff00
    19c4:	12800001 	addne	r0, r0, #1
    19c8:	131308ff 	tstne	r3, #16711680	; 0xff0000
    19cc:	12800001 	addne	r0, r0, #1
    19d0:	e12fff1e 	bx	lr

000019d4 <_strtol_r>:
    19d4:	e92d4ff0 	push	{r4, r5, r6, r7, r8, r9, r10, r11, lr}
    19d8:	e59fc1c0 	ldr	r12, [pc, #448]	; 1ba0 <_strtol_r+0x1cc>
    19dc:	e24dd014 	sub	sp, sp, #20
    19e0:	e1a0b001 	mov	r11, r1
    19e4:	e59c7000 	ldr	r7, [r12]
    19e8:	e58d000c 	str	r0, [sp, #12]
    19ec:	e1a08003 	mov	r8, r3
    19f0:	ea000000 	b	19f8 <_strtol_r+0x24>
    19f4:	e1a01004 	mov	r1, r4
    19f8:	e1a04001 	mov	r4, r1
    19fc:	e4d45001 	ldrb	r5, [r4], #1
    1a00:	e0873005 	add	r3, r7, r5
    1a04:	e5d33001 	ldrb	r3, [r3, #1]
    1a08:	e2133008 	ands	r3, r3, #8
    1a0c:	1afffff8 	bne	19f4 <_strtol_r+0x20>
    1a10:	e355002d 	cmp	r5, #45	; 0x2d
    1a14:	0a000051 	beq	1b60 <_strtol_r+0x18c>
    1a18:	e355002b 	cmp	r5, #43	; 0x2b
    1a1c:	05d15001 	ldrbeq	r5, [r1, #1]
    1a20:	02814002 	addeq	r4, r1, #2
    1a24:	e3d81010 	bics	r1, r8, #16
    1a28:	1a000007 	bne	1a4c <_strtol_r+0x78>
    1a2c:	e2781001 	rsbs	r1, r8, #1
    1a30:	33a01000 	movcc	r1, #0
    1a34:	e3550030 	cmp	r5, #48	; 0x30
    1a38:	0a00004c 	beq	1b70 <_strtol_r+0x19c>
    1a3c:	e3510000 	cmp	r1, #0
    1a40:	13a0800a 	movne	r8, #10
    1a44:	11a0a008 	movne	r10, r8
    1a48:	1a000000 	bne	1a50 <_strtol_r+0x7c>
    1a4c:	e1a0a008 	mov	r10, r8
    1a50:	e3530000 	cmp	r3, #0
    1a54:	03e06102 	mvneq	r6, #-2147483648	; 0x80000000
    1a58:	13a06102 	movne	r6, #-2147483648	; 0x80000000
    1a5c:	e1a00006 	mov	r0, r6
    1a60:	e1a0100a 	mov	r1, r10
    1a64:	e98d000c 	stmib	sp, {r2, r3}
    1a68:	eb002016 	bl	9ac8 <__aeabi_uidivmod>
    1a6c:	e1a00006 	mov	r0, r6
    1a70:	e1a09001 	mov	r9, r1
    1a74:	e3a06000 	mov	r6, #0
    1a78:	e1a0100a 	mov	r1, r10
    1a7c:	eb001fd4 	bl	99d4 <__aeabi_uidiv>
    1a80:	e1a01006 	mov	r1, r6
    1a84:	e99d000c 	ldmib	sp, {r2, r3}
    1a88:	ea000009 	b	1ab4 <_strtol_r+0xe0>
    1a8c:	e1550009 	cmp	r5, r9
    1a90:	d3a0c000 	movle	r12, #0
    1a94:	c3a0c001 	movgt	r12, #1
    1a98:	e1510000 	cmp	r1, r0
    1a9c:	13a0c000 	movne	r12, #0
    1aa0:	e35c0000 	cmp	r12, #0
    1aa4:	1a000014 	bne	1afc <_strtol_r+0x128>
    1aa8:	e021519a 	mla	r1, r10, r1, r5
    1aac:	e3a06001 	mov	r6, #1
    1ab0:	e4d45001 	ldrb	r5, [r4], #1
    1ab4:	e087c005 	add	r12, r7, r5
    1ab8:	e5dcc001 	ldrb	r12, [r12, #1]
    1abc:	e31c0004 	tst	r12, #4
    1ac0:	12455030 	subne	r5, r5, #48	; 0x30
    1ac4:	1a000005 	bne	1ae0 <_strtol_r+0x10c>
    1ac8:	e21cc003 	ands	r12, r12, #3
    1acc:	0a00000c 	beq	1b04 <_strtol_r+0x130>
    1ad0:	e35c0001 	cmp	r12, #1
    1ad4:	13a0c057 	movne	r12, #87	; 0x57
    1ad8:	03a0c037 	moveq	r12, #55	; 0x37
    1adc:	e06c5005 	rsb	r5, r12, r5
    1ae0:	e1580005 	cmp	r8, r5
    1ae4:	da000006 	ble	1b04 <_strtol_r+0x130>
    1ae8:	e1510000 	cmp	r1, r0
    1aec:	93a0c000 	movls	r12, #0
    1af0:	83a0c001 	movhi	r12, #1
    1af4:	e19c6fa6 	orrs	r6, r12, r6, lsr #31
    1af8:	0affffe3 	beq	1a8c <_strtol_r+0xb8>
    1afc:	e3e06000 	mvn	r6, #0
    1b00:	eaffffea 	b	1ab0 <_strtol_r+0xdc>
    1b04:	e3760001 	cmn	r6, #1
    1b08:	0a00000a 	beq	1b38 <_strtol_r+0x164>
    1b0c:	e3530000 	cmp	r3, #0
    1b10:	12611000 	rsbne	r1, r1, #0
    1b14:	e3520000 	cmp	r2, #0
    1b18:	e1a00001 	mov	r0, r1
    1b1c:	0a000002 	beq	1b2c <_strtol_r+0x158>
    1b20:	e3560000 	cmp	r6, #0
    1b24:	1a00000b 	bne	1b58 <_strtol_r+0x184>
    1b28:	e582b000 	str	r11, [r2]
    1b2c:	e28dd014 	add	sp, sp, #20
    1b30:	e8bd4ff0 	pop	{r4, r5, r6, r7, r8, r9, r10, r11, lr}
    1b34:	e12fff1e 	bx	lr
    1b38:	e3530000 	cmp	r3, #0
    1b3c:	e59d100c 	ldr	r1, [sp, #12]
    1b40:	03e00102 	mvneq	r0, #-2147483648	; 0x80000000
    1b44:	13a00102 	movne	r0, #-2147483648	; 0x80000000
    1b48:	e3a03022 	mov	r3, #34	; 0x22
    1b4c:	e3520000 	cmp	r2, #0
    1b50:	e5813000 	str	r3, [r1]
    1b54:	0afffff4 	beq	1b2c <_strtol_r+0x158>
    1b58:	e244b001 	sub	r11, r4, #1
    1b5c:	eafffff1 	b	1b28 <_strtol_r+0x154>
    1b60:	e2814002 	add	r4, r1, #2
    1b64:	e5d15001 	ldrb	r5, [r1, #1]
    1b68:	e3a03001 	mov	r3, #1
    1b6c:	eaffffac 	b	1a24 <_strtol_r+0x50>
    1b70:	e5d40000 	ldrb	r0, [r4]
    1b74:	e20000df 	and	r0, r0, #223	; 0xdf
    1b78:	e3500058 	cmp	r0, #88	; 0x58
    1b7c:	0a000002 	beq	1b8c <_strtol_r+0x1b8>
    1b80:	e3510000 	cmp	r1, #0
    1b84:	13a08008 	movne	r8, #8
    1b88:	eaffffaf 	b	1a4c <_strtol_r+0x78>
    1b8c:	e3a08010 	mov	r8, #16
    1b90:	e5d45001 	ldrb	r5, [r4, #1]
    1b94:	e1a0a008 	mov	r10, r8
    1b98:	e2844002 	add	r4, r4, #2
    1b9c:	eaffffab 	b	1a50 <_strtol_r+0x7c>
    1ba0:	0000c378 	.word	0x0000c378

00001ba4 <strtol>:
    1ba4:	e59fc01c 	ldr	r12, [pc, #28]	; 1bc8 <strtol+0x24>
    1ba8:	e52d4004 	push	{r4}		; (str r4, [sp, #-4]!)
    1bac:	e1a04001 	mov	r4, r1
    1bb0:	e1a03002 	mov	r3, r2
    1bb4:	e1a01000 	mov	r1, r0
    1bb8:	e1a02004 	mov	r2, r4
    1bbc:	e59c0000 	ldr	r0, [r12]
    1bc0:	e49d4004 	pop	{r4}		; (ldr r4, [sp], #4)
    1bc4:	eaffff82 	b	19d4 <_strtol_r>
    1bc8:	0000bb38 	.word	0x0000bb38

00001bcc <_vfprintf_r>:
    1bcc:	e92d4ff0 	push	{r4, r5, r6, r7, r8, r9, r10, r11, lr}
    1bd0:	e24ddf43 	sub	sp, sp, #268	; 0x10c
    1bd4:	e1a04003 	mov	r4, r3
    1bd8:	e58d1028 	str	r1, [sp, #40]	; 0x28
    1bdc:	e58d2024 	str	r2, [sp, #36]	; 0x24
    1be0:	e58d0034 	str	r0, [sp, #52]	; 0x34
    1be4:	eb0012a4 	bl	667c <_localeconv_r>
    1be8:	e5900000 	ldr	r0, [r0]
    1bec:	e58d0054 	str	r0, [sp, #84]	; 0x54
    1bf0:	ebffff5f 	bl	1974 <strlen>
    1bf4:	e59d5034 	ldr	r5, [sp, #52]	; 0x34
    1bf8:	e3550000 	cmp	r5, #0
    1bfc:	e58d005c 	str	r0, [sp, #92]	; 0x5c
    1c00:	e58d4044 	str	r4, [sp, #68]	; 0x44
    1c04:	0a000002 	beq	1c14 <_vfprintf_r+0x48>
    1c08:	e5953038 	ldr	r3, [r5, #56]	; 0x38
    1c0c:	e3530000 	cmp	r3, #0
    1c10:	0a0000e2 	beq	1fa0 <_vfprintf_r+0x3d4>
    1c14:	e59dc028 	ldr	r12, [sp, #40]	; 0x28
    1c18:	e1dc30bc 	ldrh	r3, [r12, #12]
    1c1c:	e3130a02 	tst	r3, #8192	; 0x2000
    1c20:	059c1064 	ldreq	r1, [r12, #100]	; 0x64
    1c24:	e1a02003 	mov	r2, r3
    1c28:	03832a02 	orreq	r2, r3, #8192	; 0x2000
    1c2c:	03c13a02 	biceq	r3, r1, #8192	; 0x2000
    1c30:	01cc20bc 	strheq	r2, [r12, #12]
    1c34:	058c3064 	streq	r3, [r12, #100]	; 0x64
    1c38:	e3120008 	tst	r2, #8
    1c3c:	0a0000a7 	beq	1ee0 <_vfprintf_r+0x314>
    1c40:	e59d5028 	ldr	r5, [sp, #40]	; 0x28
    1c44:	e5953010 	ldr	r3, [r5, #16]
    1c48:	e3530000 	cmp	r3, #0
    1c4c:	0a0000a3 	beq	1ee0 <_vfprintf_r+0x314>
    1c50:	e202201a 	and	r2, r2, #26
    1c54:	e352000a 	cmp	r2, #10
    1c58:	0a0000aa 	beq	1f08 <_vfprintf_r+0x33c>
    1c5c:	e3a03000 	mov	r3, #0
    1c60:	e28dc0c8 	add	r12, sp, #200	; 0xc8
    1c64:	e59f5f5c 	ldr	r5, [pc, #3932]	; 2bc8 <_vfprintf_r+0xffc>
    1c68:	e58dc01c 	str	r12, [sp, #28]
    1c6c:	e58d309c 	str	r3, [sp, #156]	; 0x9c
    1c70:	e58d3098 	str	r3, [sp, #152]	; 0x98
    1c74:	e58d303c 	str	r3, [sp, #60]	; 0x3c
    1c78:	e58dc094 	str	r12, [sp, #148]	; 0x94
    1c7c:	e58d3058 	str	r3, [sp, #88]	; 0x58
    1c80:	e58d3060 	str	r3, [sp, #96]	; 0x60
    1c84:	e58d3068 	str	r3, [sp, #104]	; 0x68
    1c88:	e58d3064 	str	r3, [sp, #100]	; 0x64
    1c8c:	e58d3048 	str	r3, [sp, #72]	; 0x48
    1c90:	e1a0700c 	mov	r7, r12
    1c94:	e2859010 	add	r9, r5, #16
    1c98:	e59dc024 	ldr	r12, [sp, #36]	; 0x24
    1c9c:	e5dc3000 	ldrb	r3, [r12]
    1ca0:	e3530025 	cmp	r3, #37	; 0x25
    1ca4:	13530000 	cmpne	r3, #0
    1ca8:	0a0000bf 	beq	1fac <_vfprintf_r+0x3e0>
    1cac:	e28c3001 	add	r3, r12, #1
    1cb0:	e1a04003 	mov	r4, r3
    1cb4:	e5d33000 	ldrb	r3, [r3]
    1cb8:	e3530025 	cmp	r3, #37	; 0x25
    1cbc:	13530000 	cmpne	r3, #0
    1cc0:	e2843001 	add	r3, r4, #1
    1cc4:	1afffff9 	bne	1cb0 <_vfprintf_r+0xe4>
    1cc8:	e59dc024 	ldr	r12, [sp, #36]	; 0x24
    1ccc:	e054500c 	subs	r5, r4, r12
    1cd0:	0a00000d 	beq	1d0c <_vfprintf_r+0x140>
    1cd4:	e59d3098 	ldr	r3, [sp, #152]	; 0x98
    1cd8:	e59d209c 	ldr	r2, [sp, #156]	; 0x9c
    1cdc:	e2833001 	add	r3, r3, #1
    1ce0:	e3530007 	cmp	r3, #7
    1ce4:	e0822005 	add	r2, r2, r5
    1ce8:	e587c000 	str	r12, [r7]
    1cec:	e5875004 	str	r5, [r7, #4]
    1cf0:	e58d3098 	str	r3, [sp, #152]	; 0x98
    1cf4:	e58d209c 	str	r2, [sp, #156]	; 0x9c
    1cf8:	d2877008 	addle	r7, r7, #8
    1cfc:	ca000091 	bgt	1f48 <_vfprintf_r+0x37c>
    1d00:	e59dc048 	ldr	r12, [sp, #72]	; 0x48
    1d04:	e08cc005 	add	r12, r12, r5
    1d08:	e58dc048 	str	r12, [sp, #72]	; 0x48
    1d0c:	e5d43000 	ldrb	r3, [r4]
    1d10:	e3530000 	cmp	r3, #0
    1d14:	0a000093 	beq	1f68 <_vfprintf_r+0x39c>
    1d18:	e2845001 	add	r5, r4, #1
    1d1c:	e3e0c000 	mvn	r12, #0
    1d20:	e3a03000 	mov	r3, #0
    1d24:	e58d5024 	str	r5, [sp, #36]	; 0x24
    1d28:	e5d48001 	ldrb	r8, [r4, #1]
    1d2c:	e58dc02c 	str	r12, [sp, #44]	; 0x2c
    1d30:	e1a02003 	mov	r2, r3
    1d34:	e5cd3077 	strb	r3, [sp, #119]	; 0x77
    1d38:	e58d3040 	str	r3, [sp, #64]	; 0x40
    1d3c:	e58d3020 	str	r3, [sp, #32]
    1d40:	e1a03005 	mov	r3, r5
    1d44:	e2833001 	add	r3, r3, #1
    1d48:	e2481020 	sub	r1, r8, #32
    1d4c:	e3510058 	cmp	r1, #88	; 0x58
    1d50:	979ff101 	ldrls	pc, [pc, r1, lsl #2]
    1d54:	ea00027f 	b	2758 <_vfprintf_r+0xb8c>
    1d58:	00002554 	.word	0x00002554
    1d5c:	00002758 	.word	0x00002758
    1d60:	00002758 	.word	0x00002758
    1d64:	00002630 	.word	0x00002630
    1d68:	00002758 	.word	0x00002758
    1d6c:	00002758 	.word	0x00002758
    1d70:	00002758 	.word	0x00002758
    1d74:	00002758 	.word	0x00002758
    1d78:	00002758 	.word	0x00002758
    1d7c:	00002758 	.word	0x00002758
    1d80:	00002434 	.word	0x00002434
    1d84:	00002548 	.word	0x00002548
    1d88:	00002758 	.word	0x00002758
    1d8c:	00001ecc 	.word	0x00001ecc
    1d90:	0000223c 	.word	0x0000223c
    1d94:	00002758 	.word	0x00002758
    1d98:	00002714 	.word	0x00002714
    1d9c:	00002728 	.word	0x00002728
    1da0:	00002728 	.word	0x00002728
    1da4:	00002728 	.word	0x00002728
    1da8:	00002728 	.word	0x00002728
    1dac:	00002728 	.word	0x00002728
    1db0:	00002728 	.word	0x00002728
    1db4:	00002728 	.word	0x00002728
    1db8:	00002728 	.word	0x00002728
    1dbc:	00002728 	.word	0x00002728
    1dc0:	00002758 	.word	0x00002758
    1dc4:	00002758 	.word	0x00002758
    1dc8:	00002758 	.word	0x00002758
    1dcc:	00002758 	.word	0x00002758
    1dd0:	00002758 	.word	0x00002758
    1dd4:	00002758 	.word	0x00002758
    1dd8:	00002758 	.word	0x00002758
    1ddc:	00002758 	.word	0x00002758
    1de0:	00002758 	.word	0x00002758
    1de4:	00002758 	.word	0x00002758
    1de8:	000022e0 	.word	0x000022e0
    1dec:	00002338 	.word	0x00002338
    1df0:	00002758 	.word	0x00002758
    1df4:	00002338 	.word	0x00002338
    1df8:	00002758 	.word	0x00002758
    1dfc:	00002758 	.word	0x00002758
    1e00:	00002758 	.word	0x00002758
    1e04:	00002758 	.word	0x00002758
    1e08:	000023e0 	.word	0x000023e0
    1e0c:	00002758 	.word	0x00002758
    1e10:	00002758 	.word	0x00002758
    1e14:	000023f4 	.word	0x000023f4
    1e18:	00002758 	.word	0x00002758
    1e1c:	00002758 	.word	0x00002758
    1e20:	00002758 	.word	0x00002758
    1e24:	00002758 	.word	0x00002758
    1e28:	00002758 	.word	0x00002758
    1e2c:	00002290 	.word	0x00002290
    1e30:	00002758 	.word	0x00002758
    1e34:	00002758 	.word	0x00002758
    1e38:	000026c8 	.word	0x000026c8
    1e3c:	00002758 	.word	0x00002758
    1e40:	00002758 	.word	0x00002758
    1e44:	00002758 	.word	0x00002758
    1e48:	00002758 	.word	0x00002758
    1e4c:	00002758 	.word	0x00002758
    1e50:	00002758 	.word	0x00002758
    1e54:	00002758 	.word	0x00002758
    1e58:	00002758 	.word	0x00002758
    1e5c:	00002758 	.word	0x00002758
    1e60:	00002758 	.word	0x00002758
    1e64:	00002644 	.word	0x00002644
    1e68:	00002688 	.word	0x00002688
    1e6c:	00002338 	.word	0x00002338
    1e70:	00002338 	.word	0x00002338
    1e74:	00002338 	.word	0x00002338
    1e78:	000025ac 	.word	0x000025ac
    1e7c:	00002688 	.word	0x00002688
    1e80:	00002758 	.word	0x00002758
    1e84:	00002758 	.word	0x00002758
    1e88:	000025c0 	.word	0x000025c0
    1e8c:	00002758 	.word	0x00002758
    1e90:	000025f0 	.word	0x000025f0
    1e94:	0000220c 	.word	0x0000220c
    1e98:	00002564 	.word	0x00002564
    1e9c:	0000245c 	.word	0x0000245c
    1ea0:	00002758 	.word	0x00002758
    1ea4:	00002470 	.word	0x00002470
    1ea8:	00002758 	.word	0x00002758
    1eac:	00001fb4 	.word	0x00001fb4
    1eb0:	00002758 	.word	0x00002758
    1eb4:	00002758 	.word	0x00002758
    1eb8:	000024e4 	.word	0x000024e4
    1ebc:	e59d5040 	ldr	r5, [sp, #64]	; 0x40
    1ec0:	e2655000 	rsb	r5, r5, #0
    1ec4:	e58d5040 	str	r5, [sp, #64]	; 0x40
    1ec8:	e58d1044 	str	r1, [sp, #68]	; 0x44
    1ecc:	e59dc020 	ldr	r12, [sp, #32]
    1ed0:	e38cc004 	orr	r12, r12, #4
    1ed4:	e58dc020 	str	r12, [sp, #32]
    1ed8:	e5d38000 	ldrb	r8, [r3]
    1edc:	eaffff98 	b	1d44 <_vfprintf_r+0x178>
    1ee0:	e59d0034 	ldr	r0, [sp, #52]	; 0x34
    1ee4:	e59d1028 	ldr	r1, [sp, #40]	; 0x28
    1ee8:	eb000766 	bl	3c88 <__swsetup_r>
    1eec:	e3500000 	cmp	r0, #0
    1ef0:	1a000010 	bne	1f38 <_vfprintf_r+0x36c>
    1ef4:	e59dc028 	ldr	r12, [sp, #40]	; 0x28
    1ef8:	e1dc20bc 	ldrh	r2, [r12, #12]
    1efc:	e202201a 	and	r2, r2, #26
    1f00:	e352000a 	cmp	r2, #10
    1f04:	1affff54 	bne	1c5c <_vfprintf_r+0x90>
    1f08:	e59d5028 	ldr	r5, [sp, #40]	; 0x28
    1f0c:	e1d530fe 	ldrsh	r3, [r5, #14]
    1f10:	e3530000 	cmp	r3, #0
    1f14:	baffff50 	blt	1c5c <_vfprintf_r+0x90>
    1f18:	e59d0034 	ldr	r0, [sp, #52]	; 0x34
    1f1c:	e1a01005 	mov	r1, r5
    1f20:	e59d2024 	ldr	r2, [sp, #36]	; 0x24
    1f24:	e1a03004 	mov	r3, r4
    1f28:	eb000711 	bl	3b74 <__sbprintf>
    1f2c:	e28ddf43 	add	sp, sp, #268	; 0x10c
    1f30:	e8bd4ff0 	pop	{r4, r5, r6, r7, r8, r9, r10, r11, lr}
    1f34:	e12fff1e 	bx	lr
    1f38:	e3e00000 	mvn	r0, #0
    1f3c:	e28ddf43 	add	sp, sp, #268	; 0x10c
    1f40:	e8bd4ff0 	pop	{r4, r5, r6, r7, r8, r9, r10, r11, lr}
    1f44:	e12fff1e 	bx	lr
    1f48:	e59d0034 	ldr	r0, [sp, #52]	; 0x34
    1f4c:	e59d1028 	ldr	r1, [sp, #40]	; 0x28
    1f50:	e28d2094 	add	r2, sp, #148	; 0x94
    1f54:	eb001865 	bl	80f0 <__sprint_r>
    1f58:	e3500000 	cmp	r0, #0
    1f5c:	1a000007 	bne	1f80 <_vfprintf_r+0x3b4>
    1f60:	e28d70c8 	add	r7, sp, #200	; 0xc8
    1f64:	eaffff65 	b	1d00 <_vfprintf_r+0x134>
    1f68:	e59d309c 	ldr	r3, [sp, #156]	; 0x9c
    1f6c:	e3530000 	cmp	r3, #0
    1f70:	159d0034 	ldrne	r0, [sp, #52]	; 0x34
    1f74:	159d1028 	ldrne	r1, [sp, #40]	; 0x28
    1f78:	128d2094 	addne	r2, sp, #148	; 0x94
    1f7c:	1b00185b 	blne	80f0 <__sprint_r>
    1f80:	e59d4028 	ldr	r4, [sp, #40]	; 0x28
    1f84:	e1d430bc 	ldrh	r3, [r4, #12]
    1f88:	e3130040 	tst	r3, #64	; 0x40
    1f8c:	1affffe9 	bne	1f38 <_vfprintf_r+0x36c>
    1f90:	e59d0048 	ldr	r0, [sp, #72]	; 0x48
    1f94:	e28ddf43 	add	sp, sp, #268	; 0x10c
    1f98:	e8bd4ff0 	pop	{r4, r5, r6, r7, r8, r9, r10, r11, lr}
    1f9c:	e12fff1e 	bx	lr
    1fa0:	e1a00005 	mov	r0, r5
    1fa4:	ebfff9e4 	bl	73c <__sinit>
    1fa8:	eaffff19 	b	1c14 <_vfprintf_r+0x48>
    1fac:	e59d4024 	ldr	r4, [sp, #36]	; 0x24
    1fb0:	eaffff55 	b	1d0c <_vfprintf_r+0x140>
    1fb4:	e59d5020 	ldr	r5, [sp, #32]
    1fb8:	e3150020 	tst	r5, #32
    1fbc:	e58d3024 	str	r3, [sp, #36]	; 0x24
    1fc0:	0a0000b9 	beq	22ac <_vfprintf_r+0x6e0>
    1fc4:	e59dc044 	ldr	r12, [sp, #68]	; 0x44
    1fc8:	e28c3007 	add	r3, r12, #7
    1fcc:	e3c33007 	bic	r3, r3, #7
    1fd0:	e2834008 	add	r4, r3, #8
    1fd4:	e58d4044 	str	r4, [sp, #68]	; 0x44
    1fd8:	e8930030 	ldm	r3, {r4, r5}
    1fdc:	e3a03001 	mov	r3, #1
    1fe0:	e3a0a000 	mov	r10, #0
    1fe4:	e5cda077 	strb	r10, [sp, #119]	; 0x77
    1fe8:	e59dc02c 	ldr	r12, [sp, #44]	; 0x2c
    1fec:	e35c0000 	cmp	r12, #0
    1ff0:	a59dc020 	ldrge	r12, [sp, #32]
    1ff4:	a3ccc080 	bicge	r12, r12, #128	; 0x80
    1ff8:	a58dc020 	strge	r12, [sp, #32]
    1ffc:	e1940005 	orrs	r0, r4, r5
    2000:	e59dc02c 	ldr	r12, [sp, #44]	; 0x2c
    2004:	03a02000 	moveq	r2, #0
    2008:	13a02001 	movne	r2, #1
    200c:	e35c0000 	cmp	r12, #0
    2010:	13822001 	orrne	r2, r2, #1
    2014:	e3520000 	cmp	r2, #0
    2018:	0a0002cb 	beq	2b4c <_vfprintf_r+0xf80>
    201c:	e3530001 	cmp	r3, #1
    2020:	0a0003b1 	beq	2eec <_vfprintf_r+0x1320>
    2024:	e3530002 	cmp	r3, #2
    2028:	e28d20c7 	add	r2, sp, #199	; 0xc7
    202c:	1a00005b 	bne	21a0 <_vfprintf_r+0x5d4>
    2030:	e59dc068 	ldr	r12, [sp, #104]	; 0x68
    2034:	e1a03224 	lsr	r3, r4, #4
    2038:	e204000f 	and	r0, r4, #15
    203c:	e1833e05 	orr	r3, r3, r5, lsl #28
    2040:	e1a01225 	lsr	r1, r5, #4
    2044:	e1a04003 	mov	r4, r3
    2048:	e1a05001 	mov	r5, r1
    204c:	e7dc3000 	ldrb	r3, [r12, r0]
    2050:	e1940005 	orrs	r0, r4, r5
    2054:	e1a06002 	mov	r6, r2
    2058:	e5c23000 	strb	r3, [r2]
    205c:	e2422001 	sub	r2, r2, #1
    2060:	1afffff3 	bne	2034 <_vfprintf_r+0x468>
    2064:	e59d301c 	ldr	r3, [sp, #28]
    2068:	e0663003 	rsb	r3, r6, r3
    206c:	e58d3038 	str	r3, [sp, #56]	; 0x38
    2070:	e59dc038 	ldr	r12, [sp, #56]	; 0x38
    2074:	e59d402c 	ldr	r4, [sp, #44]	; 0x2c
    2078:	e3a05000 	mov	r5, #0
    207c:	e15c0004 	cmp	r12, r4
    2080:	b1a0c004 	movlt	r12, r4
    2084:	e58dc030 	str	r12, [sp, #48]	; 0x30
    2088:	e58d5050 	str	r5, [sp, #80]	; 0x50
    208c:	e35a0000 	cmp	r10, #0
    2090:	0a000002 	beq	20a0 <_vfprintf_r+0x4d4>
    2094:	e59d4030 	ldr	r4, [sp, #48]	; 0x30
    2098:	e2844001 	add	r4, r4, #1
    209c:	e58d4030 	str	r4, [sp, #48]	; 0x30
    20a0:	e59d5020 	ldr	r5, [sp, #32]
    20a4:	e215b002 	ands	r11, r5, #2
    20a8:	159dc030 	ldrne	r12, [sp, #48]	; 0x30
    20ac:	e59d3020 	ldr	r3, [sp, #32]
    20b0:	128cc002 	addne	r12, r12, #2
    20b4:	158dc030 	strne	r12, [sp, #48]	; 0x30
    20b8:	e2133084 	ands	r3, r3, #132	; 0x84
    20bc:	e58d304c 	str	r3, [sp, #76]	; 0x4c
    20c0:	1a0001ae 	bne	2780 <_vfprintf_r+0xbb4>
    20c4:	e59d4040 	ldr	r4, [sp, #64]	; 0x40
    20c8:	e59dc030 	ldr	r12, [sp, #48]	; 0x30
    20cc:	e06c5004 	rsb	r5, r12, r4
    20d0:	e3550000 	cmp	r5, #0
    20d4:	da0001a9 	ble	2780 <_vfprintf_r+0xbb4>
    20d8:	e3550010 	cmp	r5, #16
    20dc:	e59d109c 	ldr	r1, [sp, #156]	; 0x9c
    20e0:	e59d2098 	ldr	r2, [sp, #152]	; 0x98
    20e4:	e59faadc 	ldr	r10, [pc, #2780]	; 2bc8 <_vfprintf_r+0xffc>
    20e8:	da000021 	ble	2174 <_vfprintf_r+0x5a8>
    20ec:	e58d606c 	str	r6, [sp, #108]	; 0x6c
    20f0:	e1a00007 	mov	r0, r7
    20f4:	e3a04010 	mov	r4, #16
    20f8:	e1a07005 	mov	r7, r5
    20fc:	e59d6028 	ldr	r6, [sp, #40]	; 0x28
    2100:	e59d5034 	ldr	r5, [sp, #52]	; 0x34
    2104:	ea000002 	b	2114 <_vfprintf_r+0x548>
    2108:	e2477010 	sub	r7, r7, #16
    210c:	e3570010 	cmp	r7, #16
    2110:	da000014 	ble	2168 <_vfprintf_r+0x59c>
    2114:	e2822001 	add	r2, r2, #1
    2118:	e59f3aa8 	ldr	r3, [pc, #2728]	; 2bc8 <_vfprintf_r+0xffc>
    211c:	e3520007 	cmp	r2, #7
    2120:	e2811010 	add	r1, r1, #16
    2124:	e8800018 	stm	r0, {r3, r4}
    2128:	e58d2098 	str	r2, [sp, #152]	; 0x98
    212c:	e58d109c 	str	r1, [sp, #156]	; 0x9c
    2130:	d2800008 	addle	r0, r0, #8
    2134:	dafffff3 	ble	2108 <_vfprintf_r+0x53c>
    2138:	e1a00005 	mov	r0, r5
    213c:	e1a01006 	mov	r1, r6
    2140:	e28d2094 	add	r2, sp, #148	; 0x94
    2144:	eb0017e9 	bl	80f0 <__sprint_r>
    2148:	e3500000 	cmp	r0, #0
    214c:	1affff8b 	bne	1f80 <_vfprintf_r+0x3b4>
    2150:	e2477010 	sub	r7, r7, #16
    2154:	e3570010 	cmp	r7, #16
    2158:	e59d109c 	ldr	r1, [sp, #156]	; 0x9c
    215c:	e59d2098 	ldr	r2, [sp, #152]	; 0x98
    2160:	e28d00c8 	add	r0, sp, #200	; 0xc8
    2164:	caffffea 	bgt	2114 <_vfprintf_r+0x548>
    2168:	e59d606c 	ldr	r6, [sp, #108]	; 0x6c
    216c:	e1a05007 	mov	r5, r7
    2170:	e1a07000 	mov	r7, r0
    2174:	e2822001 	add	r2, r2, #1
    2178:	e0854001 	add	r4, r5, r1
    217c:	e3520007 	cmp	r2, #7
    2180:	e58d2098 	str	r2, [sp, #152]	; 0x98
    2184:	e58d409c 	str	r4, [sp, #156]	; 0x9c
    2188:	e587a000 	str	r10, [r7]
    218c:	e5875004 	str	r5, [r7, #4]
    2190:	ca00035f 	bgt	2f14 <_vfprintf_r+0x1348>
    2194:	e2877008 	add	r7, r7, #8
    2198:	e5dda077 	ldrb	r10, [sp, #119]	; 0x77
    219c:	ea000178 	b	2784 <_vfprintf_r+0xbb8>
    21a0:	e1a031a4 	lsr	r3, r4, #3
    21a4:	e1833e85 	orr	r3, r3, r5, lsl #29
    21a8:	e1a001a5 	lsr	r0, r5, #3
    21ac:	e2041007 	and	r1, r4, #7
    21b0:	e1a05000 	mov	r5, r0
    21b4:	e1a04003 	mov	r4, r3
    21b8:	e1940005 	orrs	r0, r4, r5
    21bc:	e2813030 	add	r3, r1, #48	; 0x30
    21c0:	e1a06002 	mov	r6, r2
    21c4:	e5c23000 	strb	r3, [r2]
    21c8:	e2422001 	sub	r2, r2, #1
    21cc:	1afffff3 	bne	21a0 <_vfprintf_r+0x5d4>
    21d0:	e59d4020 	ldr	r4, [sp, #32]
    21d4:	e3140001 	tst	r4, #1
    21d8:	e1a01006 	mov	r1, r6
    21dc:	0a000348 	beq	2f04 <_vfprintf_r+0x1338>
    21e0:	e3530030 	cmp	r3, #48	; 0x30
    21e4:	059dc01c 	ldreq	r12, [sp, #28]
    21e8:	159d401c 	ldrne	r4, [sp, #28]
    21ec:	11a06002 	movne	r6, r2
    21f0:	0066c00c 	rsbeq	r12, r6, r12
    21f4:	13a03030 	movne	r3, #48	; 0x30
    21f8:	10664004 	rsbne	r4, r6, r4
    21fc:	058dc038 	streq	r12, [sp, #56]	; 0x38
    2200:	158d4038 	strne	r4, [sp, #56]	; 0x38
    2204:	15413001 	strbne	r3, [r1, #-1]
    2208:	eaffff98 	b	2070 <_vfprintf_r+0x4a4>
    220c:	e59dc020 	ldr	r12, [sp, #32]
    2210:	e58d3024 	str	r3, [sp, #36]	; 0x24
    2214:	e21c3020 	ands	r3, r12, #32
    2218:	0a00007c 	beq	2410 <_vfprintf_r+0x844>
    221c:	e59d4044 	ldr	r4, [sp, #68]	; 0x44
    2220:	e2843007 	add	r3, r4, #7
    2224:	e3c33007 	bic	r3, r3, #7
    2228:	e2835008 	add	r5, r3, #8
    222c:	e58d5044 	str	r5, [sp, #68]	; 0x44
    2230:	e8930030 	ldm	r3, {r4, r5}
    2234:	e3a03000 	mov	r3, #0
    2238:	eaffff68 	b	1fe0 <_vfprintf_r+0x414>
    223c:	e5d38000 	ldrb	r8, [r3]
    2240:	e358002a 	cmp	r8, #42	; 0x2a
    2244:	e2830001 	add	r0, r3, #1
    2248:	0a000629 	beq	3af4 <_vfprintf_r+0x1f28>
    224c:	e2481030 	sub	r1, r8, #48	; 0x30
    2250:	e3510009 	cmp	r1, #9
    2254:	83a04000 	movhi	r4, #0
    2258:	81a03000 	movhi	r3, r0
    225c:	858d402c 	strhi	r4, [sp, #44]	; 0x2c
    2260:	8afffeb8 	bhi	1d48 <_vfprintf_r+0x17c>
    2264:	e3a03000 	mov	r3, #0
    2268:	e4d08001 	ldrb	r8, [r0], #1
    226c:	e0833103 	add	r3, r3, r3, lsl #2
    2270:	e0813083 	add	r3, r1, r3, lsl #1
    2274:	e2481030 	sub	r1, r8, #48	; 0x30
    2278:	e3510009 	cmp	r1, #9
    227c:	9afffff9 	bls	2268 <_vfprintf_r+0x69c>
    2280:	e1833fc3 	orr	r3, r3, r3, asr #31
    2284:	e58d302c 	str	r3, [sp, #44]	; 0x2c
    2288:	e1a03000 	mov	r3, r0
    228c:	eafffead 	b	1d48 <_vfprintf_r+0x17c>
    2290:	e59d4020 	ldr	r4, [sp, #32]
    2294:	e3844010 	orr	r4, r4, #16
    2298:	e58d4020 	str	r4, [sp, #32]
    229c:	e59d5020 	ldr	r5, [sp, #32]
    22a0:	e3150020 	tst	r5, #32
    22a4:	e58d3024 	str	r3, [sp, #36]	; 0x24
    22a8:	1affff45 	bne	1fc4 <_vfprintf_r+0x3f8>
    22ac:	e59d5020 	ldr	r5, [sp, #32]
    22b0:	e3150010 	tst	r5, #16
    22b4:	1a000341 	bne	2fc0 <_vfprintf_r+0x13f4>
    22b8:	e59d4020 	ldr	r4, [sp, #32]
    22bc:	e3140040 	tst	r4, #64	; 0x40
    22c0:	0a00033e 	beq	2fc0 <_vfprintf_r+0x13f4>
    22c4:	e59d5044 	ldr	r5, [sp, #68]	; 0x44
    22c8:	e1d540b0 	ldrh	r4, [r5]
    22cc:	e2855004 	add	r5, r5, #4
    22d0:	e58d5044 	str	r5, [sp, #68]	; 0x44
    22d4:	e3a03001 	mov	r3, #1
    22d8:	e3a05000 	mov	r5, #0
    22dc:	eaffff3f 	b	1fe0 <_vfprintf_r+0x414>
    22e0:	e59d5020 	ldr	r5, [sp, #32]
    22e4:	e3855010 	orr	r5, r5, #16
    22e8:	e58d5020 	str	r5, [sp, #32]
    22ec:	e59dc020 	ldr	r12, [sp, #32]
    22f0:	e31c0020 	tst	r12, #32
    22f4:	e58d3024 	str	r3, [sp, #36]	; 0x24
    22f8:	e5cd2077 	strb	r2, [sp, #119]	; 0x77
    22fc:	0a0000e6 	beq	269c <_vfprintf_r+0xad0>
    2300:	e59d4044 	ldr	r4, [sp, #68]	; 0x44
    2304:	e2841007 	add	r1, r4, #7
    2308:	e3c11007 	bic	r1, r1, #7
    230c:	e891000c 	ldm	r1, {r2, r3}
    2310:	e2811008 	add	r1, r1, #8
    2314:	e58d1044 	str	r1, [sp, #68]	; 0x44
    2318:	e1a04002 	mov	r4, r2
    231c:	e1a05003 	mov	r5, r3
    2320:	e3520000 	cmp	r2, #0
    2324:	e2d30000 	sbcs	r0, r3, #0
    2328:	ba0003e2 	blt	32b8 <_vfprintf_r+0x16ec>
    232c:	e5dda077 	ldrb	r10, [sp, #119]	; 0x77
    2330:	e3a03001 	mov	r3, #1
    2334:	eaffff2b 	b	1fe8 <_vfprintf_r+0x41c>
    2338:	e59d4020 	ldr	r4, [sp, #32]
    233c:	e59d5044 	ldr	r5, [sp, #68]	; 0x44
    2340:	e58d3024 	str	r3, [sp, #36]	; 0x24
    2344:	e3140008 	tst	r4, #8
    2348:	e2853007 	add	r3, r5, #7
    234c:	e5cd2077 	strb	r2, [sp, #119]	; 0x77
    2350:	e3c33007 	bic	r3, r3, #7
    2354:	0a00043d 	beq	3450 <_vfprintf_r+0x1884>
    2358:	e283c008 	add	r12, r3, #8
    235c:	e5934000 	ldr	r4, [r3]
    2360:	e5933004 	ldr	r3, [r3, #4]
    2364:	e58dc044 	str	r12, [sp, #68]	; 0x44
    2368:	e58d4058 	str	r4, [sp, #88]	; 0x58
    236c:	e58d3060 	str	r3, [sp, #96]	; 0x60
    2370:	e59d1060 	ldr	r1, [sp, #96]	; 0x60
    2374:	e59d0058 	ldr	r0, [sp, #88]	; 0x58
    2378:	eb00168a 	bl	7da8 <__fpclassifyd>
    237c:	e3500001 	cmp	r0, #1
    2380:	e59d1060 	ldr	r1, [sp, #96]	; 0x60
    2384:	e59d0058 	ldr	r0, [sp, #88]	; 0x58
    2388:	1a0003d0 	bne	32d0 <_vfprintf_r+0x1704>
    238c:	e3a03000 	mov	r3, #0
    2390:	e3a02000 	mov	r2, #0
    2394:	eb00203b 	bl	a488 <__aeabi_dcmplt>
    2398:	e59d4020 	ldr	r4, [sp, #32]
    239c:	e3500000 	cmp	r0, #0
    23a0:	13a0a02d 	movne	r10, #45	; 0x2d
    23a4:	e59f3820 	ldr	r3, [pc, #2080]	; 2bcc <_vfprintf_r+0x1000>
    23a8:	e3a05003 	mov	r5, #3
    23ac:	e3a0c000 	mov	r12, #0
    23b0:	05dda077 	ldrbeq	r10, [sp, #119]	; 0x77
    23b4:	15cda077 	strbne	r10, [sp, #119]	; 0x77
    23b8:	e3c44080 	bic	r4, r4, #128	; 0x80
    23bc:	e3580047 	cmp	r8, #71	; 0x47
    23c0:	e59f6808 	ldr	r6, [pc, #2056]	; 2bd0 <_vfprintf_r+0x1004>
    23c4:	e58d5030 	str	r5, [sp, #48]	; 0x30
    23c8:	e58dc02c 	str	r12, [sp, #44]	; 0x2c
    23cc:	e58d4020 	str	r4, [sp, #32]
    23d0:	d1a06003 	movle	r6, r3
    23d4:	e58d5038 	str	r5, [sp, #56]	; 0x38
    23d8:	e58dc050 	str	r12, [sp, #80]	; 0x50
    23dc:	eaffff2a 	b	208c <_vfprintf_r+0x4c0>
    23e0:	e59d4020 	ldr	r4, [sp, #32]
    23e4:	e3844008 	orr	r4, r4, #8
    23e8:	e58d4020 	str	r4, [sp, #32]
    23ec:	e5d38000 	ldrb	r8, [r3]
    23f0:	eafffe53 	b	1d44 <_vfprintf_r+0x178>
    23f4:	e59d5020 	ldr	r5, [sp, #32]
    23f8:	e3855010 	orr	r5, r5, #16
    23fc:	e58d5020 	str	r5, [sp, #32]
    2400:	e59dc020 	ldr	r12, [sp, #32]
    2404:	e58d3024 	str	r3, [sp, #36]	; 0x24
    2408:	e21c3020 	ands	r3, r12, #32
    240c:	1affff82 	bne	221c <_vfprintf_r+0x650>
    2410:	e59dc020 	ldr	r12, [sp, #32]
    2414:	e21c2010 	ands	r2, r12, #16
    2418:	0a00042c 	beq	34d0 <_vfprintf_r+0x1904>
    241c:	e59d5044 	ldr	r5, [sp, #68]	; 0x44
    2420:	e5954000 	ldr	r4, [r5]
    2424:	e2855004 	add	r5, r5, #4
    2428:	e58d5044 	str	r5, [sp, #68]	; 0x44
    242c:	e3a05000 	mov	r5, #0
    2430:	eafffeea 	b	1fe0 <_vfprintf_r+0x414>
    2434:	e59dc044 	ldr	r12, [sp, #68]	; 0x44
    2438:	e59cc000 	ldr	r12, [r12]
    243c:	e59d4044 	ldr	r4, [sp, #68]	; 0x44
    2440:	e35c0000 	cmp	r12, #0
    2444:	e58dc040 	str	r12, [sp, #64]	; 0x40
    2448:	e2841004 	add	r1, r4, #4
    244c:	bafffe9a 	blt	1ebc <_vfprintf_r+0x2f0>
    2450:	e58d1044 	str	r1, [sp, #68]	; 0x44
    2454:	e5d38000 	ldrb	r8, [r3]
    2458:	eafffe39 	b	1d44 <_vfprintf_r+0x178>
    245c:	e59d5020 	ldr	r5, [sp, #32]
    2460:	e3855020 	orr	r5, r5, #32
    2464:	e58d5020 	str	r5, [sp, #32]
    2468:	e5d38000 	ldrb	r8, [r3]
    246c:	eafffe34 	b	1d44 <_vfprintf_r+0x178>
    2470:	e59d4044 	ldr	r4, [sp, #68]	; 0x44
    2474:	e5946000 	ldr	r6, [r4]
    2478:	e3a05000 	mov	r5, #0
    247c:	e1560005 	cmp	r6, r5
    2480:	e58d3024 	str	r3, [sp, #36]	; 0x24
    2484:	e2844004 	add	r4, r4, #4
    2488:	e5cd5077 	strb	r5, [sp, #119]	; 0x77
    248c:	0a0004c9 	beq	37b8 <_vfprintf_r+0x1bec>
    2490:	e59dc02c 	ldr	r12, [sp, #44]	; 0x2c
    2494:	e35c0000 	cmp	r12, #0
    2498:	e1a00006 	mov	r0, r6
    249c:	ba0004a6 	blt	373c <_vfprintf_r+0x1b70>
    24a0:	e1a01005 	mov	r1, r5
    24a4:	e1a0200c 	mov	r2, r12
    24a8:	ebfffb60 	bl	1230 <memchr>
    24ac:	e3500000 	cmp	r0, #0
    24b0:	0a000504 	beq	38c8 <_vfprintf_r+0x1cfc>
    24b4:	e59dc02c 	ldr	r12, [sp, #44]	; 0x2c
    24b8:	e0660000 	rsb	r0, r6, r0
    24bc:	e15c0000 	cmp	r12, r0
    24c0:	a1a0c000 	movge	r12, r0
    24c4:	e58d4044 	str	r4, [sp, #68]	; 0x44
    24c8:	e1cc4fcc 	bic	r4, r12, r12, asr #31
    24cc:	e58dc038 	str	r12, [sp, #56]	; 0x38
    24d0:	e58d502c 	str	r5, [sp, #44]	; 0x2c
    24d4:	e58d4030 	str	r4, [sp, #48]	; 0x30
    24d8:	e58d5050 	str	r5, [sp, #80]	; 0x50
    24dc:	e5dda077 	ldrb	r10, [sp, #119]	; 0x77
    24e0:	eafffee9 	b	208c <_vfprintf_r+0x4c0>
    24e4:	e59d5020 	ldr	r5, [sp, #32]
    24e8:	e59f46e4 	ldr	r4, [pc, #1764]	; 2bd4 <_vfprintf_r+0x1008>
    24ec:	e3150020 	tst	r5, #32
    24f0:	e58d3024 	str	r3, [sp, #36]	; 0x24
    24f4:	e5cd2077 	strb	r2, [sp, #119]	; 0x77
    24f8:	e58d4068 	str	r4, [sp, #104]	; 0x68
    24fc:	0a000078 	beq	26e4 <_vfprintf_r+0xb18>
    2500:	e59dc044 	ldr	r12, [sp, #68]	; 0x44
    2504:	e28c3007 	add	r3, r12, #7
    2508:	e3c33007 	bic	r3, r3, #7
    250c:	e2834008 	add	r4, r3, #8
    2510:	e58d4044 	str	r4, [sp, #68]	; 0x44
    2514:	e8930030 	ldm	r3, {r4, r5}
    2518:	e59dc020 	ldr	r12, [sp, #32]
    251c:	e31c0001 	tst	r12, #1
    2520:	0a000235 	beq	2dfc <_vfprintf_r+0x1230>
    2524:	e1940005 	orrs	r0, r4, r5
    2528:	0a000233 	beq	2dfc <_vfprintf_r+0x1230>
    252c:	e3a03030 	mov	r3, #48	; 0x30
    2530:	e38cc002 	orr	r12, r12, #2
    2534:	e5cd3078 	strb	r3, [sp, #120]	; 0x78
    2538:	e5cd8079 	strb	r8, [sp, #121]	; 0x79
    253c:	e58dc020 	str	r12, [sp, #32]
    2540:	e3a03002 	mov	r3, #2
    2544:	eafffea5 	b	1fe0 <_vfprintf_r+0x414>
    2548:	e5d38000 	ldrb	r8, [r3]
    254c:	e3a0202b 	mov	r2, #43	; 0x2b
    2550:	eafffdfb 	b	1d44 <_vfprintf_r+0x178>
    2554:	e3520000 	cmp	r2, #0
    2558:	e5d38000 	ldrb	r8, [r3]
    255c:	03a02020 	moveq	r2, #32
    2560:	eafffdf7 	b	1d44 <_vfprintf_r+0x178>
    2564:	e59dc044 	ldr	r12, [sp, #68]	; 0x44
    2568:	e59d5020 	ldr	r5, [sp, #32]
    256c:	e28cc004 	add	r12, r12, #4
    2570:	e58d3024 	str	r3, [sp, #36]	; 0x24
    2574:	e59d3044 	ldr	r3, [sp, #68]	; 0x44
    2578:	e58dc044 	str	r12, [sp, #68]	; 0x44
    257c:	e59fc650 	ldr	r12, [pc, #1616]	; 2bd4 <_vfprintf_r+0x1008>
    2580:	e3855002 	orr	r5, r5, #2
    2584:	e5934000 	ldr	r4, [r3]
    2588:	e3a08078 	mov	r8, #120	; 0x78
    258c:	e3a03030 	mov	r3, #48	; 0x30
    2590:	e58d5020 	str	r5, [sp, #32]
    2594:	e5cd3078 	strb	r3, [sp, #120]	; 0x78
    2598:	e3a05000 	mov	r5, #0
    259c:	e5cd8079 	strb	r8, [sp, #121]	; 0x79
    25a0:	e58dc068 	str	r12, [sp, #104]	; 0x68
    25a4:	e3a03002 	mov	r3, #2
    25a8:	eafffe8c 	b	1fe0 <_vfprintf_r+0x414>
    25ac:	e59d5020 	ldr	r5, [sp, #32]
    25b0:	e3855040 	orr	r5, r5, #64	; 0x40
    25b4:	e58d5020 	str	r5, [sp, #32]
    25b8:	e5d38000 	ldrb	r8, [r3]
    25bc:	eafffde0 	b	1d44 <_vfprintf_r+0x178>
    25c0:	e5d38000 	ldrb	r8, [r3]
    25c4:	e358006c 	cmp	r8, #108	; 0x6c
    25c8:	059dc020 	ldreq	r12, [sp, #32]
    25cc:	159d4020 	ldrne	r4, [sp, #32]
    25d0:	e1a01003 	mov	r1, r3
    25d4:	038cc020 	orreq	r12, r12, #32
    25d8:	13844010 	orrne	r4, r4, #16
    25dc:	02833001 	addeq	r3, r3, #1
    25e0:	058dc020 	streq	r12, [sp, #32]
    25e4:	05d18001 	ldrbeq	r8, [r1, #1]
    25e8:	158d4020 	strne	r4, [sp, #32]
    25ec:	eafffdd4 	b	1d44 <_vfprintf_r+0x178>
    25f0:	e59dc020 	ldr	r12, [sp, #32]
    25f4:	e31c0020 	tst	r12, #32
    25f8:	e58d3024 	str	r3, [sp, #36]	; 0x24
    25fc:	e5cd2077 	strb	r2, [sp, #119]	; 0x77
    2600:	0a000399 	beq	346c <_vfprintf_r+0x18a0>
    2604:	e59d4044 	ldr	r4, [sp, #68]	; 0x44
    2608:	e5941000 	ldr	r1, [r4]
    260c:	e59d4048 	ldr	r4, [sp, #72]	; 0x48
    2610:	e1a05fc4 	asr	r5, r4, #31
    2614:	e1a03005 	mov	r3, r5
    2618:	e59d5044 	ldr	r5, [sp, #68]	; 0x44
    261c:	e1a02004 	mov	r2, r4
    2620:	e2855004 	add	r5, r5, #4
    2624:	e58d5044 	str	r5, [sp, #68]	; 0x44
    2628:	e881000c 	stm	r1, {r2, r3}
    262c:	eafffd99 	b	1c98 <_vfprintf_r+0xcc>
    2630:	e59d5020 	ldr	r5, [sp, #32]
    2634:	e3855001 	orr	r5, r5, #1
    2638:	e58d5020 	str	r5, [sp, #32]
    263c:	e5d38000 	ldrb	r8, [r3]
    2640:	eafffdbf 	b	1d44 <_vfprintf_r+0x178>
    2644:	e58d3024 	str	r3, [sp, #36]	; 0x24
    2648:	e59d3044 	ldr	r3, [sp, #68]	; 0x44
    264c:	e59d4044 	ldr	r4, [sp, #68]	; 0x44
    2650:	e5932000 	ldr	r2, [r3]
    2654:	e3a0c001 	mov	r12, #1
    2658:	e2844004 	add	r4, r4, #4
    265c:	e3a03000 	mov	r3, #0
    2660:	e58dc030 	str	r12, [sp, #48]	; 0x30
    2664:	e5cd20a0 	strb	r2, [sp, #160]	; 0xa0
    2668:	e58d4044 	str	r4, [sp, #68]	; 0x44
    266c:	e1a0a003 	mov	r10, r3
    2670:	e5cd3077 	strb	r3, [sp, #119]	; 0x77
    2674:	e58da02c 	str	r10, [sp, #44]	; 0x2c
    2678:	e58da050 	str	r10, [sp, #80]	; 0x50
    267c:	e58dc038 	str	r12, [sp, #56]	; 0x38
    2680:	e28d60a0 	add	r6, sp, #160	; 0xa0
    2684:	eafffe85 	b	20a0 <_vfprintf_r+0x4d4>
    2688:	e59dc020 	ldr	r12, [sp, #32]
    268c:	e31c0020 	tst	r12, #32
    2690:	e58d3024 	str	r3, [sp, #36]	; 0x24
    2694:	e5cd2077 	strb	r2, [sp, #119]	; 0x77
    2698:	1affff18 	bne	2300 <_vfprintf_r+0x734>
    269c:	e59d5020 	ldr	r5, [sp, #32]
    26a0:	e3150010 	tst	r5, #16
    26a4:	0a00037d 	beq	34a0 <_vfprintf_r+0x18d4>
    26a8:	e59dc044 	ldr	r12, [sp, #68]	; 0x44
    26ac:	e59c4000 	ldr	r4, [r12]
    26b0:	e28cc004 	add	r12, r12, #4
    26b4:	e1a05fc4 	asr	r5, r4, #31
    26b8:	e58dc044 	str	r12, [sp, #68]	; 0x44
    26bc:	e1a02004 	mov	r2, r4
    26c0:	e1a03005 	mov	r3, r5
    26c4:	eaffff15 	b	2320 <_vfprintf_r+0x754>
    26c8:	e59d5020 	ldr	r5, [sp, #32]
    26cc:	e59f4504 	ldr	r4, [pc, #1284]	; 2bd8 <_vfprintf_r+0x100c>
    26d0:	e3150020 	tst	r5, #32
    26d4:	e58d3024 	str	r3, [sp, #36]	; 0x24
    26d8:	e5cd2077 	strb	r2, [sp, #119]	; 0x77
    26dc:	e58d4068 	str	r4, [sp, #104]	; 0x68
    26e0:	1affff86 	bne	2500 <_vfprintf_r+0x934>
    26e4:	e59d5020 	ldr	r5, [sp, #32]
    26e8:	e3150010 	tst	r5, #16
    26ec:	1a00023a 	bne	2fdc <_vfprintf_r+0x1410>
    26f0:	e59d4020 	ldr	r4, [sp, #32]
    26f4:	e3140040 	tst	r4, #64	; 0x40
    26f8:	0a000237 	beq	2fdc <_vfprintf_r+0x1410>
    26fc:	e59d5044 	ldr	r5, [sp, #68]	; 0x44
    2700:	e1d540b0 	ldrh	r4, [r5]
    2704:	e2855004 	add	r5, r5, #4
    2708:	e58d5044 	str	r5, [sp, #68]	; 0x44
    270c:	e3a05000 	mov	r5, #0
    2710:	eaffff80 	b	2518 <_vfprintf_r+0x94c>
    2714:	e59d5020 	ldr	r5, [sp, #32]
    2718:	e3855080 	orr	r5, r5, #128	; 0x80
    271c:	e58d5020 	str	r5, [sp, #32]
    2720:	e5d38000 	ldrb	r8, [r3]
    2724:	eafffd86 	b	1d44 <_vfprintf_r+0x178>
    2728:	e3a0c000 	mov	r12, #0
    272c:	e58dc040 	str	r12, [sp, #64]	; 0x40
    2730:	e2481030 	sub	r1, r8, #48	; 0x30
    2734:	e1a0000c 	mov	r0, r12
    2738:	e4d38001 	ldrb	r8, [r3], #1
    273c:	e0800100 	add	r0, r0, r0, lsl #2
    2740:	e0810080 	add	r0, r1, r0, lsl #1
    2744:	e2481030 	sub	r1, r8, #48	; 0x30
    2748:	e3510009 	cmp	r1, #9
    274c:	9afffff9 	bls	2738 <_vfprintf_r+0xb6c>
    2750:	e58d0040 	str	r0, [sp, #64]	; 0x40
    2754:	eafffd7b 	b	1d48 <_vfprintf_r+0x17c>
    2758:	e3580000 	cmp	r8, #0
    275c:	e58d3024 	str	r3, [sp, #36]	; 0x24
    2760:	e5cd2077 	strb	r2, [sp, #119]	; 0x77
    2764:	0afffdff 	beq	1f68 <_vfprintf_r+0x39c>
    2768:	e3a03000 	mov	r3, #0
    276c:	e3a0c001 	mov	r12, #1
    2770:	e1a0a003 	mov	r10, r3
    2774:	e58dc030 	str	r12, [sp, #48]	; 0x30
    2778:	e5cd80a0 	strb	r8, [sp, #160]	; 0xa0
    277c:	eaffffbb 	b	2670 <_vfprintf_r+0xaa4>
    2780:	e59d409c 	ldr	r4, [sp, #156]	; 0x9c
    2784:	e35a0000 	cmp	r10, #0
    2788:	0a00000a 	beq	27b8 <_vfprintf_r+0xbec>
    278c:	e59d3098 	ldr	r3, [sp, #152]	; 0x98
    2790:	e2833001 	add	r3, r3, #1
    2794:	e3530007 	cmp	r3, #7
    2798:	e2844001 	add	r4, r4, #1
    279c:	e28d2077 	add	r2, sp, #119	; 0x77
    27a0:	e58d3098 	str	r3, [sp, #152]	; 0x98
    27a4:	e3a03001 	mov	r3, #1
    27a8:	e887000c 	stm	r7, {r2, r3}
    27ac:	e58d409c 	str	r4, [sp, #156]	; 0x9c
    27b0:	d2877008 	addle	r7, r7, #8
    27b4:	ca00017e 	bgt	2db4 <_vfprintf_r+0x11e8>
    27b8:	e35b0000 	cmp	r11, #0
    27bc:	0a00000a 	beq	27ec <_vfprintf_r+0xc20>
    27c0:	e59d3098 	ldr	r3, [sp, #152]	; 0x98
    27c4:	e2833001 	add	r3, r3, #1
    27c8:	e3530007 	cmp	r3, #7
    27cc:	e2844002 	add	r4, r4, #2
    27d0:	e28d2078 	add	r2, sp, #120	; 0x78
    27d4:	e58d3098 	str	r3, [sp, #152]	; 0x98
    27d8:	e3a03002 	mov	r3, #2
    27dc:	e887000c 	stm	r7, {r2, r3}
    27e0:	e58d409c 	str	r4, [sp, #156]	; 0x9c
    27e4:	d2877008 	addle	r7, r7, #8
    27e8:	ca00017a 	bgt	2dd8 <_vfprintf_r+0x120c>
    27ec:	e59d504c 	ldr	r5, [sp, #76]	; 0x4c
    27f0:	e3550080 	cmp	r5, #128	; 0x80
    27f4:	0a0000e3 	beq	2b88 <_vfprintf_r+0xfbc>
    27f8:	e59dc02c 	ldr	r12, [sp, #44]	; 0x2c
    27fc:	e59d3038 	ldr	r3, [sp, #56]	; 0x38
    2800:	e063a00c 	rsb	r10, r3, r12
    2804:	e35a0000 	cmp	r10, #0
    2808:	da000034 	ble	28e0 <_vfprintf_r+0xd14>
    280c:	e35a0010 	cmp	r10, #16
    2810:	e59d3098 	ldr	r3, [sp, #152]	; 0x98
    2814:	e59f53c4 	ldr	r5, [pc, #964]	; 2be0 <_vfprintf_r+0x1014>
    2818:	da000020 	ble	28a0 <_vfprintf_r+0xcd4>
    281c:	e1a02007 	mov	r2, r7
    2820:	e1a01004 	mov	r1, r4
    2824:	e1a07005 	mov	r7, r5
    2828:	e3a0b010 	mov	r11, #16
    282c:	e59d4034 	ldr	r4, [sp, #52]	; 0x34
    2830:	e59d5028 	ldr	r5, [sp, #40]	; 0x28
    2834:	ea000002 	b	2844 <_vfprintf_r+0xc78>
    2838:	e24aa010 	sub	r10, r10, #16
    283c:	e35a0010 	cmp	r10, #16
    2840:	da000013 	ble	2894 <_vfprintf_r+0xcc8>
    2844:	e2833001 	add	r3, r3, #1
    2848:	e3530007 	cmp	r3, #7
    284c:	e2811010 	add	r1, r1, #16
    2850:	e8820a00 	stm	r2, {r9, r11}
    2854:	e58d3098 	str	r3, [sp, #152]	; 0x98
    2858:	e58d109c 	str	r1, [sp, #156]	; 0x9c
    285c:	d2822008 	addle	r2, r2, #8
    2860:	dafffff4 	ble	2838 <_vfprintf_r+0xc6c>
    2864:	e1a00004 	mov	r0, r4
    2868:	e1a01005 	mov	r1, r5
    286c:	e28d2094 	add	r2, sp, #148	; 0x94
    2870:	eb00161e 	bl	80f0 <__sprint_r>
    2874:	e3500000 	cmp	r0, #0
    2878:	1afffdc0 	bne	1f80 <_vfprintf_r+0x3b4>
    287c:	e24aa010 	sub	r10, r10, #16
    2880:	e35a0010 	cmp	r10, #16
    2884:	e59d109c 	ldr	r1, [sp, #156]	; 0x9c
    2888:	e59d3098 	ldr	r3, [sp, #152]	; 0x98
    288c:	e28d20c8 	add	r2, sp, #200	; 0xc8
    2890:	caffffeb 	bgt	2844 <_vfprintf_r+0xc78>
    2894:	e1a05007 	mov	r5, r7
    2898:	e1a04001 	mov	r4, r1
    289c:	e1a07002 	mov	r7, r2
    28a0:	e2833001 	add	r3, r3, #1
    28a4:	e3530007 	cmp	r3, #7
    28a8:	e084400a 	add	r4, r4, r10
    28ac:	e8870420 	stm	r7, {r5, r10}
    28b0:	e58d3098 	str	r3, [sp, #152]	; 0x98
    28b4:	e58d409c 	str	r4, [sp, #156]	; 0x9c
    28b8:	d2877008 	addle	r7, r7, #8
    28bc:	da000007 	ble	28e0 <_vfprintf_r+0xd14>
    28c0:	e59d0034 	ldr	r0, [sp, #52]	; 0x34
    28c4:	e59d1028 	ldr	r1, [sp, #40]	; 0x28
    28c8:	e28d2094 	add	r2, sp, #148	; 0x94
    28cc:	eb001607 	bl	80f0 <__sprint_r>
    28d0:	e3500000 	cmp	r0, #0
    28d4:	1afffda9 	bne	1f80 <_vfprintf_r+0x3b4>
    28d8:	e59d409c 	ldr	r4, [sp, #156]	; 0x9c
    28dc:	e28d70c8 	add	r7, sp, #200	; 0xc8
    28e0:	e59d5020 	ldr	r5, [sp, #32]
    28e4:	e3150c01 	tst	r5, #256	; 0x100
    28e8:	1a00004d 	bne	2a24 <_vfprintf_r+0xe58>
    28ec:	e59d3098 	ldr	r3, [sp, #152]	; 0x98
    28f0:	e59dc038 	ldr	r12, [sp, #56]	; 0x38
    28f4:	e2833001 	add	r3, r3, #1
    28f8:	e084400c 	add	r4, r4, r12
    28fc:	e3530007 	cmp	r3, #7
    2900:	e58d409c 	str	r4, [sp, #156]	; 0x9c
    2904:	e8871040 	stm	r7, {r6, r12}
    2908:	e58d3098 	str	r3, [sp, #152]	; 0x98
    290c:	ca000118 	bgt	2d74 <_vfprintf_r+0x11a8>
    2910:	e2877008 	add	r7, r7, #8
    2914:	e59dc020 	ldr	r12, [sp, #32]
    2918:	e31c0004 	tst	r12, #4
    291c:	0a000033 	beq	29f0 <_vfprintf_r+0xe24>
    2920:	e59dc040 	ldr	r12, [sp, #64]	; 0x40
    2924:	e59d0030 	ldr	r0, [sp, #48]	; 0x30
    2928:	e060500c 	rsb	r5, r0, r12
    292c:	e3550000 	cmp	r5, #0
    2930:	da00002e 	ble	29f0 <_vfprintf_r+0xe24>
    2934:	e3550010 	cmp	r5, #16
    2938:	e59d3098 	ldr	r3, [sp, #152]	; 0x98
    293c:	e59fa284 	ldr	r10, [pc, #644]	; 2bc8 <_vfprintf_r+0xffc>
    2940:	da00001b 	ble	29b4 <_vfprintf_r+0xde8>
    2944:	e3a06010 	mov	r6, #16
    2948:	e59d8034 	ldr	r8, [sp, #52]	; 0x34
    294c:	e59db028 	ldr	r11, [sp, #40]	; 0x28
    2950:	ea000002 	b	2960 <_vfprintf_r+0xd94>
    2954:	e2455010 	sub	r5, r5, #16
    2958:	e3550010 	cmp	r5, #16
    295c:	da000014 	ble	29b4 <_vfprintf_r+0xde8>
    2960:	e2833001 	add	r3, r3, #1
    2964:	e59f125c 	ldr	r1, [pc, #604]	; 2bc8 <_vfprintf_r+0xffc>
    2968:	e3530007 	cmp	r3, #7
    296c:	e2844010 	add	r4, r4, #16
    2970:	e8870042 	stm	r7, {r1, r6}
    2974:	e58d3098 	str	r3, [sp, #152]	; 0x98
    2978:	e58d409c 	str	r4, [sp, #156]	; 0x9c
    297c:	d2877008 	addle	r7, r7, #8
    2980:	dafffff3 	ble	2954 <_vfprintf_r+0xd88>
    2984:	e1a00008 	mov	r0, r8
    2988:	e1a0100b 	mov	r1, r11
    298c:	e28d2094 	add	r2, sp, #148	; 0x94
    2990:	eb0015d6 	bl	80f0 <__sprint_r>
    2994:	e3500000 	cmp	r0, #0
    2998:	1afffd78 	bne	1f80 <_vfprintf_r+0x3b4>
    299c:	e2455010 	sub	r5, r5, #16
    29a0:	e28d3098 	add	r3, sp, #152	; 0x98
    29a4:	e3550010 	cmp	r5, #16
    29a8:	e8930018 	ldm	r3, {r3, r4}
    29ac:	e28d70c8 	add	r7, sp, #200	; 0xc8
    29b0:	caffffea 	bgt	2960 <_vfprintf_r+0xd94>
    29b4:	e2833001 	add	r3, r3, #1
    29b8:	e0844005 	add	r4, r4, r5
    29bc:	e3530007 	cmp	r3, #7
    29c0:	e58d3098 	str	r3, [sp, #152]	; 0x98
    29c4:	e58d409c 	str	r4, [sp, #156]	; 0x9c
    29c8:	e587a000 	str	r10, [r7]
    29cc:	e5875004 	str	r5, [r7, #4]
    29d0:	da000006 	ble	29f0 <_vfprintf_r+0xe24>
    29d4:	e59d0034 	ldr	r0, [sp, #52]	; 0x34
    29d8:	e59d1028 	ldr	r1, [sp, #40]	; 0x28
    29dc:	e28d2094 	add	r2, sp, #148	; 0x94
    29e0:	eb0015c2 	bl	80f0 <__sprint_r>
    29e4:	e3500000 	cmp	r0, #0
    29e8:	1afffd64 	bne	1f80 <_vfprintf_r+0x3b4>
    29ec:	e59d409c 	ldr	r4, [sp, #156]	; 0x9c
    29f0:	e59d5048 	ldr	r5, [sp, #72]	; 0x48
    29f4:	e59dc030 	ldr	r12, [sp, #48]	; 0x30
    29f8:	e59d0040 	ldr	r0, [sp, #64]	; 0x40
    29fc:	e15c0000 	cmp	r12, r0
    2a00:	a085500c 	addge	r5, r5, r12
    2a04:	b0855000 	addlt	r5, r5, r0
    2a08:	e3540000 	cmp	r4, #0
    2a0c:	e58d5048 	str	r5, [sp, #72]	; 0x48
    2a10:	1a0000e0 	bne	2d98 <_vfprintf_r+0x11cc>
    2a14:	e3a03000 	mov	r3, #0
    2a18:	e58d3098 	str	r3, [sp, #152]	; 0x98
    2a1c:	e28d70c8 	add	r7, sp, #200	; 0xc8
    2a20:	eafffc9c 	b	1c98 <_vfprintf_r+0xcc>
    2a24:	e3580065 	cmp	r8, #101	; 0x65
    2a28:	da00009c 	ble	2ca0 <_vfprintf_r+0x10d4>
    2a2c:	e59d0058 	ldr	r0, [sp, #88]	; 0x58
    2a30:	e59d1060 	ldr	r1, [sp, #96]	; 0x60
    2a34:	e3a02000 	mov	r2, #0
    2a38:	e3a03000 	mov	r3, #0
    2a3c:	eb001e8b 	bl	a470 <__aeabi_dcmpeq>
    2a40:	e3500000 	cmp	r0, #0
    2a44:	0a0000ee 	beq	2e04 <_vfprintf_r+0x1238>
    2a48:	e59d3098 	ldr	r3, [sp, #152]	; 0x98
    2a4c:	e59f0188 	ldr	r0, [pc, #392]	; 2bdc <_vfprintf_r+0x1010>
    2a50:	e2833001 	add	r3, r3, #1
    2a54:	e2844001 	add	r4, r4, #1
    2a58:	e3530007 	cmp	r3, #7
    2a5c:	e3a02001 	mov	r2, #1
    2a60:	e5870000 	str	r0, [r7]
    2a64:	e5872004 	str	r2, [r7, #4]
    2a68:	e58d409c 	str	r4, [sp, #156]	; 0x9c
    2a6c:	e58d3098 	str	r3, [sp, #152]	; 0x98
    2a70:	d2877008 	addle	r7, r7, #8
    2a74:	ca0002a2 	bgt	3504 <_vfprintf_r+0x1938>
    2a78:	e59d307c 	ldr	r3, [sp, #124]	; 0x7c
    2a7c:	e59d503c 	ldr	r5, [sp, #60]	; 0x3c
    2a80:	e1530005 	cmp	r3, r5
    2a84:	ba000002 	blt	2a94 <_vfprintf_r+0xec8>
    2a88:	e59dc020 	ldr	r12, [sp, #32]
    2a8c:	e31c0001 	tst	r12, #1
    2a90:	0affff9f 	beq	2914 <_vfprintf_r+0xd48>
    2a94:	e59d3098 	ldr	r3, [sp, #152]	; 0x98
    2a98:	e59d505c 	ldr	r5, [sp, #92]	; 0x5c
    2a9c:	e2833001 	add	r3, r3, #1
    2aa0:	e59dc054 	ldr	r12, [sp, #84]	; 0x54
    2aa4:	e0844005 	add	r4, r4, r5
    2aa8:	e3530007 	cmp	r3, #7
    2aac:	e587c000 	str	r12, [r7]
    2ab0:	e5875004 	str	r5, [r7, #4]
    2ab4:	e58d409c 	str	r4, [sp, #156]	; 0x9c
    2ab8:	e58d3098 	str	r3, [sp, #152]	; 0x98
    2abc:	d2877008 	addle	r7, r7, #8
    2ac0:	ca0002f8 	bgt	36a8 <_vfprintf_r+0x1adc>
    2ac4:	e59d503c 	ldr	r5, [sp, #60]	; 0x3c
    2ac8:	e2456001 	sub	r6, r5, #1
    2acc:	e3560000 	cmp	r6, #0
    2ad0:	daffff8f 	ble	2914 <_vfprintf_r+0xd48>
    2ad4:	e3560010 	cmp	r6, #16
    2ad8:	e59d3098 	ldr	r3, [sp, #152]	; 0x98
    2adc:	e59f50fc 	ldr	r5, [pc, #252]	; 2be0 <_vfprintf_r+0x1014>
    2ae0:	da000143 	ble	2ff4 <_vfprintf_r+0x1428>
    2ae4:	e3a08010 	mov	r8, #16
    2ae8:	e59da034 	ldr	r10, [sp, #52]	; 0x34
    2aec:	e59db028 	ldr	r11, [sp, #40]	; 0x28
    2af0:	ea000002 	b	2b00 <_vfprintf_r+0xf34>
    2af4:	e2466010 	sub	r6, r6, #16
    2af8:	e3560010 	cmp	r6, #16
    2afc:	da00013c 	ble	2ff4 <_vfprintf_r+0x1428>
    2b00:	e2833001 	add	r3, r3, #1
    2b04:	e3530007 	cmp	r3, #7
    2b08:	e2844010 	add	r4, r4, #16
    2b0c:	e5879000 	str	r9, [r7]
    2b10:	e5878004 	str	r8, [r7, #4]
    2b14:	e58d3098 	str	r3, [sp, #152]	; 0x98
    2b18:	e58d409c 	str	r4, [sp, #156]	; 0x9c
    2b1c:	d2877008 	addle	r7, r7, #8
    2b20:	dafffff3 	ble	2af4 <_vfprintf_r+0xf28>
    2b24:	e1a0000a 	mov	r0, r10
    2b28:	e1a0100b 	mov	r1, r11
    2b2c:	e28d2094 	add	r2, sp, #148	; 0x94
    2b30:	eb00156e 	bl	80f0 <__sprint_r>
    2b34:	e3500000 	cmp	r0, #0
    2b38:	1afffd10 	bne	1f80 <_vfprintf_r+0x3b4>
    2b3c:	e28d3098 	add	r3, sp, #152	; 0x98
    2b40:	e8930018 	ldm	r3, {r3, r4}
    2b44:	e28d70c8 	add	r7, sp, #200	; 0xc8
    2b48:	eaffffe9 	b	2af4 <_vfprintf_r+0xf28>
    2b4c:	e3530000 	cmp	r3, #0
    2b50:	158d2038 	strne	r2, [sp, #56]	; 0x38
    2b54:	128d60c8 	addne	r6, sp, #200	; 0xc8
    2b58:	1afffd44 	bne	2070 <_vfprintf_r+0x4a4>
    2b5c:	e59d4020 	ldr	r4, [sp, #32]
    2b60:	e3140001 	tst	r4, #1
    2b64:	128d6f42 	addne	r6, sp, #264	; 0x108
    2b68:	13a03030 	movne	r3, #48	; 0x30
    2b6c:	159d501c 	ldrne	r5, [sp, #28]
    2b70:	15663041 	strbne	r3, [r6, #-65]!	; 0xffffffbf
    2b74:	10665005 	rsbne	r5, r6, r5
    2b78:	158d5038 	strne	r5, [sp, #56]	; 0x38
    2b7c:	058d3038 	streq	r3, [sp, #56]	; 0x38
    2b80:	028d60c8 	addeq	r6, sp, #200	; 0xc8
    2b84:	eafffd39 	b	2070 <_vfprintf_r+0x4a4>
    2b88:	e59dc040 	ldr	r12, [sp, #64]	; 0x40
    2b8c:	e59d5030 	ldr	r5, [sp, #48]	; 0x30
    2b90:	e065a00c 	rsb	r10, r5, r12
    2b94:	e35a0000 	cmp	r10, #0
    2b98:	daffff16 	ble	27f8 <_vfprintf_r+0xc2c>
    2b9c:	e35a0010 	cmp	r10, #16
    2ba0:	e59d3098 	ldr	r3, [sp, #152]	; 0x98
    2ba4:	e59f5034 	ldr	r5, [pc, #52]	; 2be0 <_vfprintf_r+0x1014>
    2ba8:	da00002b 	ble	2c5c <_vfprintf_r+0x1090>
    2bac:	e1a02007 	mov	r2, r7
    2bb0:	e1a01004 	mov	r1, r4
    2bb4:	e1a07005 	mov	r7, r5
    2bb8:	e3a0b010 	mov	r11, #16
    2bbc:	e59d4034 	ldr	r4, [sp, #52]	; 0x34
    2bc0:	e59d5028 	ldr	r5, [sp, #40]	; 0x28
    2bc4:	ea00000d 	b	2c00 <_vfprintf_r+0x1034>
    2bc8:	0000b80c 	.word	0x0000b80c
    2bcc:	0000b82c 	.word	0x0000b82c
    2bd0:	0000b830 	.word	0x0000b830
    2bd4:	0000b850 	.word	0x0000b850
    2bd8:	0000b83c 	.word	0x0000b83c
    2bdc:	0000b86c 	.word	0x0000b86c
    2be0:	0000b81c 	.word	0x0000b81c
    2be4:	0000b834 	.word	0x0000b834
    2be8:	0000b838 	.word	0x0000b838
    2bec:	0000b864 	.word	0x0000b864
    2bf0:	66666667 	.word	0x66666667
    2bf4:	e24aa010 	sub	r10, r10, #16
    2bf8:	e35a0010 	cmp	r10, #16
    2bfc:	da000013 	ble	2c50 <_vfprintf_r+0x1084>
    2c00:	e2833001 	add	r3, r3, #1
    2c04:	e3530007 	cmp	r3, #7
    2c08:	e2811010 	add	r1, r1, #16
    2c0c:	e8820a00 	stm	r2, {r9, r11}
    2c10:	e58d3098 	str	r3, [sp, #152]	; 0x98
    2c14:	e58d109c 	str	r1, [sp, #156]	; 0x9c
    2c18:	d2822008 	addle	r2, r2, #8
    2c1c:	dafffff4 	ble	2bf4 <_vfprintf_r+0x1028>
    2c20:	e1a00004 	mov	r0, r4
    2c24:	e1a01005 	mov	r1, r5
    2c28:	e28d2094 	add	r2, sp, #148	; 0x94
    2c2c:	eb00152f 	bl	80f0 <__sprint_r>
    2c30:	e3500000 	cmp	r0, #0
    2c34:	1afffcd1 	bne	1f80 <_vfprintf_r+0x3b4>
    2c38:	e24aa010 	sub	r10, r10, #16
    2c3c:	e35a0010 	cmp	r10, #16
    2c40:	e59d109c 	ldr	r1, [sp, #156]	; 0x9c
    2c44:	e59d3098 	ldr	r3, [sp, #152]	; 0x98
    2c48:	e28d20c8 	add	r2, sp, #200	; 0xc8
    2c4c:	caffffeb 	bgt	2c00 <_vfprintf_r+0x1034>
    2c50:	e1a05007 	mov	r5, r7
    2c54:	e1a04001 	mov	r4, r1
    2c58:	e1a07002 	mov	r7, r2
    2c5c:	e2833001 	add	r3, r3, #1
    2c60:	e3530007 	cmp	r3, #7
    2c64:	e084400a 	add	r4, r4, r10
    2c68:	e8870420 	stm	r7, {r5, r10}
    2c6c:	e58d3098 	str	r3, [sp, #152]	; 0x98
    2c70:	e58d409c 	str	r4, [sp, #156]	; 0x9c
    2c74:	d2877008 	addle	r7, r7, #8
    2c78:	dafffede 	ble	27f8 <_vfprintf_r+0xc2c>
    2c7c:	e59d0034 	ldr	r0, [sp, #52]	; 0x34
    2c80:	e59d1028 	ldr	r1, [sp, #40]	; 0x28
    2c84:	e28d2094 	add	r2, sp, #148	; 0x94
    2c88:	eb001518 	bl	80f0 <__sprint_r>
    2c8c:	e3500000 	cmp	r0, #0
    2c90:	1afffcba 	bne	1f80 <_vfprintf_r+0x3b4>
    2c94:	e59d409c 	ldr	r4, [sp, #156]	; 0x9c
    2c98:	e28d70c8 	add	r7, sp, #200	; 0xc8
    2c9c:	eafffed5 	b	27f8 <_vfprintf_r+0xc2c>
    2ca0:	e59d503c 	ldr	r5, [sp, #60]	; 0x3c
    2ca4:	e59d8098 	ldr	r8, [sp, #152]	; 0x98
    2ca8:	e3550001 	cmp	r5, #1
    2cac:	e2888001 	add	r8, r8, #1
    2cb0:	e2844001 	add	r4, r4, #1
    2cb4:	da00013a 	ble	31a4 <_vfprintf_r+0x15d8>
    2cb8:	e3580007 	cmp	r8, #7
    2cbc:	e3a03001 	mov	r3, #1
    2cc0:	e58d409c 	str	r4, [sp, #156]	; 0x9c
    2cc4:	e5876000 	str	r6, [r7]
    2cc8:	e58d8098 	str	r8, [sp, #152]	; 0x98
    2ccc:	e5873004 	str	r3, [r7, #4]
    2cd0:	d2877008 	addle	r7, r7, #8
    2cd4:	ca000146 	bgt	31f4 <_vfprintf_r+0x1628>
    2cd8:	e59d505c 	ldr	r5, [sp, #92]	; 0x5c
    2cdc:	e2888001 	add	r8, r8, #1
    2ce0:	e59dc054 	ldr	r12, [sp, #84]	; 0x54
    2ce4:	e3580007 	cmp	r8, #7
    2ce8:	e0844005 	add	r4, r4, r5
    2cec:	e587c000 	str	r12, [r7]
    2cf0:	e5875004 	str	r5, [r7, #4]
    2cf4:	e58d8098 	str	r8, [sp, #152]	; 0x98
    2cf8:	e58d409c 	str	r4, [sp, #156]	; 0x9c
    2cfc:	d2877008 	addle	r7, r7, #8
    2d00:	ca000145 	bgt	321c <_vfprintf_r+0x1650>
    2d04:	e59d0058 	ldr	r0, [sp, #88]	; 0x58
    2d08:	e59d1060 	ldr	r1, [sp, #96]	; 0x60
    2d0c:	e3a02000 	mov	r2, #0
    2d10:	e3a03000 	mov	r3, #0
    2d14:	eb001dd5 	bl	a470 <__aeabi_dcmpeq>
    2d18:	e3500000 	cmp	r0, #0
    2d1c:	1a000086 	bne	2f3c <_vfprintf_r+0x1370>
    2d20:	e59d503c 	ldr	r5, [sp, #60]	; 0x3c
    2d24:	e2888001 	add	r8, r8, #1
    2d28:	e2453001 	sub	r3, r5, #1
    2d2c:	e2866001 	add	r6, r6, #1
    2d30:	e0844003 	add	r4, r4, r3
    2d34:	e3580007 	cmp	r8, #7
    2d38:	e58d8098 	str	r8, [sp, #152]	; 0x98
    2d3c:	e58d409c 	str	r4, [sp, #156]	; 0x9c
    2d40:	e5876000 	str	r6, [r7]
    2d44:	e5873004 	str	r3, [r7, #4]
    2d48:	ca00011f 	bgt	31cc <_vfprintf_r+0x1600>
    2d4c:	e2877008 	add	r7, r7, #8
    2d50:	e59d5064 	ldr	r5, [sp, #100]	; 0x64
    2d54:	e2888001 	add	r8, r8, #1
    2d58:	e0854004 	add	r4, r5, r4
    2d5c:	e28d3084 	add	r3, sp, #132	; 0x84
    2d60:	e3580007 	cmp	r8, #7
    2d64:	e58d8098 	str	r8, [sp, #152]	; 0x98
    2d68:	e58d409c 	str	r4, [sp, #156]	; 0x9c
    2d6c:	e8870028 	stm	r7, {r3, r5}
    2d70:	dafffee6 	ble	2910 <_vfprintf_r+0xd44>
    2d74:	e59d0034 	ldr	r0, [sp, #52]	; 0x34
    2d78:	e59d1028 	ldr	r1, [sp, #40]	; 0x28
    2d7c:	e28d2094 	add	r2, sp, #148	; 0x94
    2d80:	eb0014da 	bl	80f0 <__sprint_r>
    2d84:	e3500000 	cmp	r0, #0
    2d88:	1afffc7c 	bne	1f80 <_vfprintf_r+0x3b4>
    2d8c:	e59d409c 	ldr	r4, [sp, #156]	; 0x9c
    2d90:	e28d70c8 	add	r7, sp, #200	; 0xc8
    2d94:	eafffede 	b	2914 <_vfprintf_r+0xd48>
    2d98:	e59d0034 	ldr	r0, [sp, #52]	; 0x34
    2d9c:	e59d1028 	ldr	r1, [sp, #40]	; 0x28
    2da0:	e28d2094 	add	r2, sp, #148	; 0x94
    2da4:	eb0014d1 	bl	80f0 <__sprint_r>
    2da8:	e3500000 	cmp	r0, #0
    2dac:	0affff18 	beq	2a14 <_vfprintf_r+0xe48>
    2db0:	eafffc72 	b	1f80 <_vfprintf_r+0x3b4>
    2db4:	e59d0034 	ldr	r0, [sp, #52]	; 0x34
    2db8:	e59d1028 	ldr	r1, [sp, #40]	; 0x28
    2dbc:	e28d2094 	add	r2, sp, #148	; 0x94
    2dc0:	eb0014ca 	bl	80f0 <__sprint_r>
    2dc4:	e3500000 	cmp	r0, #0
    2dc8:	1afffc6c 	bne	1f80 <_vfprintf_r+0x3b4>
    2dcc:	e59d409c 	ldr	r4, [sp, #156]	; 0x9c
    2dd0:	e28d70c8 	add	r7, sp, #200	; 0xc8
    2dd4:	eafffe77 	b	27b8 <_vfprintf_r+0xbec>
    2dd8:	e59d0034 	ldr	r0, [sp, #52]	; 0x34
    2ddc:	e59d1028 	ldr	r1, [sp, #40]	; 0x28
    2de0:	e28d2094 	add	r2, sp, #148	; 0x94
    2de4:	eb0014c1 	bl	80f0 <__sprint_r>
    2de8:	e3500000 	cmp	r0, #0
    2dec:	1afffc63 	bne	1f80 <_vfprintf_r+0x3b4>
    2df0:	e59d409c 	ldr	r4, [sp, #156]	; 0x9c
    2df4:	e28d70c8 	add	r7, sp, #200	; 0xc8
    2df8:	eafffe7b 	b	27ec <_vfprintf_r+0xc20>
    2dfc:	e3a03002 	mov	r3, #2
    2e00:	eafffc76 	b	1fe0 <_vfprintf_r+0x414>
    2e04:	e59d307c 	ldr	r3, [sp, #124]	; 0x7c
    2e08:	e3530000 	cmp	r3, #0
    2e0c:	da0001c5 	ble	3528 <_vfprintf_r+0x195c>
    2e10:	e59dc050 	ldr	r12, [sp, #80]	; 0x50
    2e14:	e59d503c 	ldr	r5, [sp, #60]	; 0x3c
    2e18:	e155000c 	cmp	r5, r12
    2e1c:	a1a0500c 	movge	r5, r12
    2e20:	e59dc03c 	ldr	r12, [sp, #60]	; 0x3c
    2e24:	e3550000 	cmp	r5, #0
    2e28:	e086b00c 	add	r11, r6, r12
    2e2c:	da000009 	ble	2e58 <_vfprintf_r+0x128c>
    2e30:	e59d3098 	ldr	r3, [sp, #152]	; 0x98
    2e34:	e2833001 	add	r3, r3, #1
    2e38:	e0844005 	add	r4, r4, r5
    2e3c:	e3530007 	cmp	r3, #7
    2e40:	e5876000 	str	r6, [r7]
    2e44:	e5875004 	str	r5, [r7, #4]
    2e48:	e58d409c 	str	r4, [sp, #156]	; 0x9c
    2e4c:	e58d3098 	str	r3, [sp, #152]	; 0x98
    2e50:	d2877008 	addle	r7, r7, #8
    2e54:	ca000242 	bgt	3764 <_vfprintf_r+0x1b98>
    2e58:	e59dc050 	ldr	r12, [sp, #80]	; 0x50
    2e5c:	e1c55fc5 	bic	r5, r5, r5, asr #31
    2e60:	e065800c 	rsb	r8, r5, r12
    2e64:	e3580000 	cmp	r8, #0
    2e68:	da00007c 	ble	3060 <_vfprintf_r+0x1494>
    2e6c:	e3580010 	cmp	r8, #16
    2e70:	e59d3098 	ldr	r3, [sp, #152]	; 0x98
    2e74:	e51f529c 	ldr	r5, [pc, #-668]	; 2be0 <_vfprintf_r+0x1014>
    2e78:	da000068 	ble	3020 <_vfprintf_r+0x1454>
    2e7c:	e1a02007 	mov	r2, r7
    2e80:	e1a01004 	mov	r1, r4
    2e84:	e1a07005 	mov	r7, r5
    2e88:	e3a0a010 	mov	r10, #16
    2e8c:	e59d4034 	ldr	r4, [sp, #52]	; 0x34
    2e90:	e59d5028 	ldr	r5, [sp, #40]	; 0x28
    2e94:	ea000002 	b	2ea4 <_vfprintf_r+0x12d8>
    2e98:	e2488010 	sub	r8, r8, #16
    2e9c:	e3580010 	cmp	r8, #16
    2ea0:	da00005b 	ble	3014 <_vfprintf_r+0x1448>
    2ea4:	e2833001 	add	r3, r3, #1
    2ea8:	e3530007 	cmp	r3, #7
    2eac:	e2811010 	add	r1, r1, #16
    2eb0:	e8820600 	stm	r2, {r9, r10}
    2eb4:	e58d3098 	str	r3, [sp, #152]	; 0x98
    2eb8:	e58d109c 	str	r1, [sp, #156]	; 0x9c
    2ebc:	d2822008 	addle	r2, r2, #8
    2ec0:	dafffff4 	ble	2e98 <_vfprintf_r+0x12cc>
    2ec4:	e1a00004 	mov	r0, r4
    2ec8:	e1a01005 	mov	r1, r5
    2ecc:	e28d2094 	add	r2, sp, #148	; 0x94
    2ed0:	eb001486 	bl	80f0 <__sprint_r>
    2ed4:	e3500000 	cmp	r0, #0
    2ed8:	1afffc28 	bne	1f80 <_vfprintf_r+0x3b4>
    2edc:	e59d109c 	ldr	r1, [sp, #156]	; 0x9c
    2ee0:	e59d3098 	ldr	r3, [sp, #152]	; 0x98
    2ee4:	e28d20c8 	add	r2, sp, #200	; 0xc8
    2ee8:	eaffffea 	b	2e98 <_vfprintf_r+0x12cc>
    2eec:	e3550000 	cmp	r5, #0
    2ef0:	03540009 	cmpeq	r4, #9
    2ef4:	8a0000db 	bhi	3268 <_vfprintf_r+0x169c>
    2ef8:	e2844030 	add	r4, r4, #48	; 0x30
    2efc:	e28d6f42 	add	r6, sp, #264	; 0x108
    2f00:	e5664041 	strb	r4, [r6, #-65]!	; 0xffffffbf
    2f04:	e59d501c 	ldr	r5, [sp, #28]
    2f08:	e0665005 	rsb	r5, r6, r5
    2f0c:	e58d5038 	str	r5, [sp, #56]	; 0x38
    2f10:	eafffc56 	b	2070 <_vfprintf_r+0x4a4>
    2f14:	e59d0034 	ldr	r0, [sp, #52]	; 0x34
    2f18:	e59d1028 	ldr	r1, [sp, #40]	; 0x28
    2f1c:	e28d2094 	add	r2, sp, #148	; 0x94
    2f20:	eb001472 	bl	80f0 <__sprint_r>
    2f24:	e3500000 	cmp	r0, #0
    2f28:	1afffc14 	bne	1f80 <_vfprintf_r+0x3b4>
    2f2c:	e5dda077 	ldrb	r10, [sp, #119]	; 0x77
    2f30:	e59d409c 	ldr	r4, [sp, #156]	; 0x9c
    2f34:	e28d70c8 	add	r7, sp, #200	; 0xc8
    2f38:	eafffe11 	b	2784 <_vfprintf_r+0xbb8>
    2f3c:	e59dc03c 	ldr	r12, [sp, #60]	; 0x3c
    2f40:	e24c6001 	sub	r6, r12, #1
    2f44:	e3560000 	cmp	r6, #0
    2f48:	daffff80 	ble	2d50 <_vfprintf_r+0x1184>
    2f4c:	e3560010 	cmp	r6, #16
    2f50:	e51f5378 	ldr	r5, [pc, #-888]	; 2be0 <_vfprintf_r+0x1014>
    2f54:	da0000bb 	ble	3248 <_vfprintf_r+0x167c>
    2f58:	e58d502c 	str	r5, [sp, #44]	; 0x2c
    2f5c:	e3a0a010 	mov	r10, #16
    2f60:	e59db034 	ldr	r11, [sp, #52]	; 0x34
    2f64:	e59d5028 	ldr	r5, [sp, #40]	; 0x28
    2f68:	ea000002 	b	2f78 <_vfprintf_r+0x13ac>
    2f6c:	e2466010 	sub	r6, r6, #16
    2f70:	e3560010 	cmp	r6, #16
    2f74:	da0000b2 	ble	3244 <_vfprintf_r+0x1678>
    2f78:	e2888001 	add	r8, r8, #1
    2f7c:	e3580007 	cmp	r8, #7
    2f80:	e2844010 	add	r4, r4, #16
    2f84:	e8870600 	stm	r7, {r9, r10}
    2f88:	e58d8098 	str	r8, [sp, #152]	; 0x98
    2f8c:	e58d409c 	str	r4, [sp, #156]	; 0x9c
    2f90:	d2877008 	addle	r7, r7, #8
    2f94:	dafffff4 	ble	2f6c <_vfprintf_r+0x13a0>
    2f98:	e1a0000b 	mov	r0, r11
    2f9c:	e1a01005 	mov	r1, r5
    2fa0:	e28d2094 	add	r2, sp, #148	; 0x94
    2fa4:	eb001451 	bl	80f0 <__sprint_r>
    2fa8:	e3500000 	cmp	r0, #0
    2fac:	1afffbf3 	bne	1f80 <_vfprintf_r+0x3b4>
    2fb0:	e59d409c 	ldr	r4, [sp, #156]	; 0x9c
    2fb4:	e59d8098 	ldr	r8, [sp, #152]	; 0x98
    2fb8:	e28d70c8 	add	r7, sp, #200	; 0xc8
    2fbc:	eaffffea 	b	2f6c <_vfprintf_r+0x13a0>
    2fc0:	e59dc044 	ldr	r12, [sp, #68]	; 0x44
    2fc4:	e59c4000 	ldr	r4, [r12]
    2fc8:	e28cc004 	add	r12, r12, #4
    2fcc:	e3a03001 	mov	r3, #1
    2fd0:	e58dc044 	str	r12, [sp, #68]	; 0x44
    2fd4:	e3a05000 	mov	r5, #0
    2fd8:	eafffc00 	b	1fe0 <_vfprintf_r+0x414>
    2fdc:	e59dc044 	ldr	r12, [sp, #68]	; 0x44
    2fe0:	e59c4000 	ldr	r4, [r12]
    2fe4:	e28cc004 	add	r12, r12, #4
    2fe8:	e58dc044 	str	r12, [sp, #68]	; 0x44
    2fec:	e3a05000 	mov	r5, #0
    2ff0:	eafffd48 	b	2518 <_vfprintf_r+0x94c>
    2ff4:	e2833001 	add	r3, r3, #1
    2ff8:	e0844006 	add	r4, r4, r6
    2ffc:	e3530007 	cmp	r3, #7
    3000:	e58d3098 	str	r3, [sp, #152]	; 0x98
    3004:	e58d409c 	str	r4, [sp, #156]	; 0x9c
    3008:	e8870060 	stm	r7, {r5, r6}
    300c:	dafffe3f 	ble	2910 <_vfprintf_r+0xd44>
    3010:	eaffff57 	b	2d74 <_vfprintf_r+0x11a8>
    3014:	e1a05007 	mov	r5, r7
    3018:	e1a04001 	mov	r4, r1
    301c:	e1a07002 	mov	r7, r2
    3020:	e2833001 	add	r3, r3, #1
    3024:	e3530007 	cmp	r3, #7
    3028:	e0844008 	add	r4, r4, r8
    302c:	e8870120 	stm	r7, {r5, r8}
    3030:	e58d3098 	str	r3, [sp, #152]	; 0x98
    3034:	e58d409c 	str	r4, [sp, #156]	; 0x9c
    3038:	d2877008 	addle	r7, r7, #8
    303c:	da000007 	ble	3060 <_vfprintf_r+0x1494>
    3040:	e59d0034 	ldr	r0, [sp, #52]	; 0x34
    3044:	e59d1028 	ldr	r1, [sp, #40]	; 0x28
    3048:	e28d2094 	add	r2, sp, #148	; 0x94
    304c:	eb001427 	bl	80f0 <__sprint_r>
    3050:	e3500000 	cmp	r0, #0
    3054:	1afffbc9 	bne	1f80 <_vfprintf_r+0x3b4>
    3058:	e59d409c 	ldr	r4, [sp, #156]	; 0x9c
    305c:	e28d70c8 	add	r7, sp, #200	; 0xc8
    3060:	e59d307c 	ldr	r3, [sp, #124]	; 0x7c
    3064:	e59d503c 	ldr	r5, [sp, #60]	; 0x3c
    3068:	e59dc050 	ldr	r12, [sp, #80]	; 0x50
    306c:	e1530005 	cmp	r3, r5
    3070:	e086600c 	add	r6, r6, r12
    3074:	ba000035 	blt	3150 <_vfprintf_r+0x1584>
    3078:	e59d5020 	ldr	r5, [sp, #32]
    307c:	e3150001 	tst	r5, #1
    3080:	1a000032 	bne	3150 <_vfprintf_r+0x1584>
    3084:	e59dc03c 	ldr	r12, [sp, #60]	; 0x3c
    3088:	e066500b 	rsb	r5, r6, r11
    308c:	e063300c 	rsb	r3, r3, r12
    3090:	e1550003 	cmp	r5, r3
    3094:	a1a05003 	movge	r5, r3
    3098:	e3550000 	cmp	r5, #0
    309c:	da000009 	ble	30c8 <_vfprintf_r+0x14fc>
    30a0:	e59d2098 	ldr	r2, [sp, #152]	; 0x98
    30a4:	e2822001 	add	r2, r2, #1
    30a8:	e0844005 	add	r4, r4, r5
    30ac:	e3520007 	cmp	r2, #7
    30b0:	e5876000 	str	r6, [r7]
    30b4:	e5875004 	str	r5, [r7, #4]
    30b8:	e58d409c 	str	r4, [sp, #156]	; 0x9c
    30bc:	e58d2098 	str	r2, [sp, #152]	; 0x98
    30c0:	d2877008 	addle	r7, r7, #8
    30c4:	ca0001af 	bgt	3788 <_vfprintf_r+0x1bbc>
    30c8:	e1c55fc5 	bic	r5, r5, r5, asr #31
    30cc:	e0656003 	rsb	r6, r5, r3
    30d0:	e3560000 	cmp	r6, #0
    30d4:	dafffe0e 	ble	2914 <_vfprintf_r+0xd48>
    30d8:	e3560010 	cmp	r6, #16
    30dc:	e59d3098 	ldr	r3, [sp, #152]	; 0x98
    30e0:	e51f5508 	ldr	r5, [pc, #-1288]	; 2be0 <_vfprintf_r+0x1014>
    30e4:	daffffc2 	ble	2ff4 <_vfprintf_r+0x1428>
    30e8:	e3a08010 	mov	r8, #16
    30ec:	e59da034 	ldr	r10, [sp, #52]	; 0x34
    30f0:	e59db028 	ldr	r11, [sp, #40]	; 0x28
    30f4:	ea000002 	b	3104 <_vfprintf_r+0x1538>
    30f8:	e2466010 	sub	r6, r6, #16
    30fc:	e3560010 	cmp	r6, #16
    3100:	daffffbb 	ble	2ff4 <_vfprintf_r+0x1428>
    3104:	e2833001 	add	r3, r3, #1
    3108:	e3530007 	cmp	r3, #7
    310c:	e2844010 	add	r4, r4, #16
    3110:	e5879000 	str	r9, [r7]
    3114:	e5878004 	str	r8, [r7, #4]
    3118:	e58d3098 	str	r3, [sp, #152]	; 0x98
    311c:	e58d409c 	str	r4, [sp, #156]	; 0x9c
    3120:	d2877008 	addle	r7, r7, #8
    3124:	dafffff3 	ble	30f8 <_vfprintf_r+0x152c>
    3128:	e1a0000a 	mov	r0, r10
    312c:	e1a0100b 	mov	r1, r11
    3130:	e28d2094 	add	r2, sp, #148	; 0x94
    3134:	eb0013ed 	bl	80f0 <__sprint_r>
    3138:	e3500000 	cmp	r0, #0
    313c:	1afffb8f 	bne	1f80 <_vfprintf_r+0x3b4>
    3140:	e28d3098 	add	r3, sp, #152	; 0x98
    3144:	e8930018 	ldm	r3, {r3, r4}
    3148:	e28d70c8 	add	r7, sp, #200	; 0xc8
    314c:	eaffffe9 	b	30f8 <_vfprintf_r+0x152c>
    3150:	e59d2098 	ldr	r2, [sp, #152]	; 0x98
    3154:	e59dc05c 	ldr	r12, [sp, #92]	; 0x5c
    3158:	e2822001 	add	r2, r2, #1
    315c:	e59d5054 	ldr	r5, [sp, #84]	; 0x54
    3160:	e084400c 	add	r4, r4, r12
    3164:	e3520007 	cmp	r2, #7
    3168:	e8871020 	stm	r7, {r5, r12}
    316c:	e58d409c 	str	r4, [sp, #156]	; 0x9c
    3170:	e58d2098 	str	r2, [sp, #152]	; 0x98
    3174:	d2877008 	addle	r7, r7, #8
    3178:	daffffc1 	ble	3084 <_vfprintf_r+0x14b8>
    317c:	e59d0034 	ldr	r0, [sp, #52]	; 0x34
    3180:	e59d1028 	ldr	r1, [sp, #40]	; 0x28
    3184:	e28d2094 	add	r2, sp, #148	; 0x94
    3188:	eb0013d8 	bl	80f0 <__sprint_r>
    318c:	e3500000 	cmp	r0, #0
    3190:	1afffb7a 	bne	1f80 <_vfprintf_r+0x3b4>
    3194:	e59d307c 	ldr	r3, [sp, #124]	; 0x7c
    3198:	e59d409c 	ldr	r4, [sp, #156]	; 0x9c
    319c:	e28d70c8 	add	r7, sp, #200	; 0xc8
    31a0:	eaffffb7 	b	3084 <_vfprintf_r+0x14b8>
    31a4:	e59dc020 	ldr	r12, [sp, #32]
    31a8:	e31c0001 	tst	r12, #1
    31ac:	1afffec1 	bne	2cb8 <_vfprintf_r+0x10ec>
    31b0:	e3a03001 	mov	r3, #1
    31b4:	e3580007 	cmp	r8, #7
    31b8:	e58d409c 	str	r4, [sp, #156]	; 0x9c
    31bc:	e58d8098 	str	r8, [sp, #152]	; 0x98
    31c0:	e5876000 	str	r6, [r7]
    31c4:	e5873004 	str	r3, [r7, #4]
    31c8:	dafffedf 	ble	2d4c <_vfprintf_r+0x1180>
    31cc:	e59d0034 	ldr	r0, [sp, #52]	; 0x34
    31d0:	e59d1028 	ldr	r1, [sp, #40]	; 0x28
    31d4:	e28d2094 	add	r2, sp, #148	; 0x94
    31d8:	eb0013c4 	bl	80f0 <__sprint_r>
    31dc:	e3500000 	cmp	r0, #0
    31e0:	1afffb66 	bne	1f80 <_vfprintf_r+0x3b4>
    31e4:	e59d409c 	ldr	r4, [sp, #156]	; 0x9c
    31e8:	e59d8098 	ldr	r8, [sp, #152]	; 0x98
    31ec:	e28d70c8 	add	r7, sp, #200	; 0xc8
    31f0:	eafffed6 	b	2d50 <_vfprintf_r+0x1184>
    31f4:	e59d0034 	ldr	r0, [sp, #52]	; 0x34
    31f8:	e59d1028 	ldr	r1, [sp, #40]	; 0x28
    31fc:	e28d2094 	add	r2, sp, #148	; 0x94
    3200:	eb0013ba 	bl	80f0 <__sprint_r>
    3204:	e3500000 	cmp	r0, #0
    3208:	1afffb5c 	bne	1f80 <_vfprintf_r+0x3b4>
    320c:	e59d409c 	ldr	r4, [sp, #156]	; 0x9c
    3210:	e59d8098 	ldr	r8, [sp, #152]	; 0x98
    3214:	e28d70c8 	add	r7, sp, #200	; 0xc8
    3218:	eafffeae 	b	2cd8 <_vfprintf_r+0x110c>
    321c:	e59d0034 	ldr	r0, [sp, #52]	; 0x34
    3220:	e59d1028 	ldr	r1, [sp, #40]	; 0x28
    3224:	e28d2094 	add	r2, sp, #148	; 0x94
    3228:	eb0013b0 	bl	80f0 <__sprint_r>
    322c:	e3500000 	cmp	r0, #0
    3230:	1afffb52 	bne	1f80 <_vfprintf_r+0x3b4>
    3234:	e59d409c 	ldr	r4, [sp, #156]	; 0x9c
    3238:	e59d8098 	ldr	r8, [sp, #152]	; 0x98
    323c:	e28d70c8 	add	r7, sp, #200	; 0xc8
    3240:	eafffeaf 	b	2d04 <_vfprintf_r+0x1138>
    3244:	e59d502c 	ldr	r5, [sp, #44]	; 0x2c
    3248:	e2888001 	add	r8, r8, #1
    324c:	e0844006 	add	r4, r4, r6
    3250:	e3580007 	cmp	r8, #7
    3254:	e58d8098 	str	r8, [sp, #152]	; 0x98
    3258:	e58d409c 	str	r4, [sp, #156]	; 0x9c
    325c:	e8870060 	stm	r7, {r5, r6}
    3260:	dafffeb9 	ble	2d4c <_vfprintf_r+0x1180>
    3264:	eaffffd8 	b	31cc <_vfprintf_r+0x1600>
    3268:	e28db0c7 	add	r11, sp, #199	; 0xc7
    326c:	e1a00004 	mov	r0, r4
    3270:	e1a01005 	mov	r1, r5
    3274:	e3a0200a 	mov	r2, #10
    3278:	e3a03000 	mov	r3, #0
    327c:	eb001cb0 	bl	a544 <__aeabi_uldivmod>
    3280:	e2822030 	add	r2, r2, #48	; 0x30
    3284:	e5cb2000 	strb	r2, [r11]
    3288:	e1a00004 	mov	r0, r4
    328c:	e1a01005 	mov	r1, r5
    3290:	e3a0200a 	mov	r2, #10
    3294:	e3a03000 	mov	r3, #0
    3298:	eb001ca9 	bl	a544 <__aeabi_uldivmod>
    329c:	e1a04000 	mov	r4, r0
    32a0:	e1a05001 	mov	r5, r1
    32a4:	e194c005 	orrs	r12, r4, r5
    32a8:	e1a0600b 	mov	r6, r11
    32ac:	e24bb001 	sub	r11, r11, #1
    32b0:	1affffed 	bne	326c <_vfprintf_r+0x16a0>
    32b4:	eafffb6a 	b	2064 <_vfprintf_r+0x498>
    32b8:	e3a0a02d 	mov	r10, #45	; 0x2d
    32bc:	e2744000 	rsbs	r4, r4, #0
    32c0:	e2e55000 	rsc	r5, r5, #0
    32c4:	e5cda077 	strb	r10, [sp, #119]	; 0x77
    32c8:	e3a03001 	mov	r3, #1
    32cc:	eafffb45 	b	1fe8 <_vfprintf_r+0x41c>
    32d0:	eb0012b4 	bl	7da8 <__fpclassifyd>
    32d4:	e3500000 	cmp	r0, #0
    32d8:	0a0000da 	beq	3648 <_vfprintf_r+0x1a7c>
    32dc:	e59d402c 	ldr	r4, [sp, #44]	; 0x2c
    32e0:	e3740001 	cmn	r4, #1
    32e4:	03a0c006 	moveq	r12, #6
    32e8:	e3c85020 	bic	r5, r8, #32
    32ec:	058dc02c 	streq	r12, [sp, #44]	; 0x2c
    32f0:	0a000005 	beq	330c <_vfprintf_r+0x1740>
    32f4:	e3550047 	cmp	r5, #71	; 0x47
    32f8:	1a000003 	bne	330c <_vfprintf_r+0x1740>
    32fc:	e59d402c 	ldr	r4, [sp, #44]	; 0x2c
    3300:	e3540000 	cmp	r4, #0
    3304:	03a04001 	moveq	r4, #1
    3308:	e58d402c 	str	r4, [sp, #44]	; 0x2c
    330c:	e59d3060 	ldr	r3, [sp, #96]	; 0x60
    3310:	e59d4020 	ldr	r4, [sp, #32]
    3314:	e3530000 	cmp	r3, #0
    3318:	e3844c01 	orr	r4, r4, #256	; 0x100
    331c:	b283a102 	addlt	r10, r3, #-2147483648	; 0x80000000
    3320:	b3a0b02d 	movlt	r11, #45	; 0x2d
    3324:	a59da060 	ldrge	r10, [sp, #96]	; 0x60
    3328:	a3a0b000 	movge	r11, #0
    332c:	e2553046 	subs	r3, r5, #70	; 0x46
    3330:	e58d404c 	str	r4, [sp, #76]	; 0x4c
    3334:	e2734000 	rsbs	r4, r3, #0
    3338:	e0b44003 	adcs	r4, r4, r3
    333c:	e3540000 	cmp	r4, #0
    3340:	1a000142 	bne	3850 <_vfprintf_r+0x1c84>
    3344:	e3550045 	cmp	r5, #69	; 0x45
    3348:	1a00019c 	bne	39c0 <_vfprintf_r+0x1df4>
    334c:	e59dc02c 	ldr	r12, [sp, #44]	; 0x2c
    3350:	e3a00002 	mov	r0, #2
    3354:	e28c4001 	add	r4, r12, #1
    3358:	e28d107c 	add	r1, sp, #124	; 0x7c
    335c:	e88d0011 	stm	sp, {r0, r4}
    3360:	e58d1008 	str	r1, [sp, #8]
    3364:	e28d0080 	add	r0, sp, #128	; 0x80
    3368:	e28d108c 	add	r1, sp, #140	; 0x8c
    336c:	e58d000c 	str	r0, [sp, #12]
    3370:	e59d2058 	ldr	r2, [sp, #88]	; 0x58
    3374:	e1a0300a 	mov	r3, r10
    3378:	e58d1010 	str	r1, [sp, #16]
    337c:	e59d0034 	ldr	r0, [sp, #52]	; 0x34
    3380:	eb0003c0 	bl	4288 <_dtoa_r>
    3384:	e1a06000 	mov	r6, r0
    3388:	e0804004 	add	r4, r0, r4
    338c:	e3a03000 	mov	r3, #0
    3390:	e59d0058 	ldr	r0, [sp, #88]	; 0x58
    3394:	e1a0100a 	mov	r1, r10
    3398:	e3a02000 	mov	r2, #0
    339c:	eb001c33 	bl	a470 <__aeabi_dcmpeq>
    33a0:	e3500000 	cmp	r0, #0
    33a4:	11a03004 	movne	r3, r4
    33a8:	1a000009 	bne	33d4 <_vfprintf_r+0x1808>
    33ac:	e59d308c 	ldr	r3, [sp, #140]	; 0x8c
    33b0:	e1540003 	cmp	r4, r3
    33b4:	9a000006 	bls	33d4 <_vfprintf_r+0x1808>
    33b8:	e3a01030 	mov	r1, #48	; 0x30
    33bc:	e2832001 	add	r2, r3, #1
    33c0:	e58d208c 	str	r2, [sp, #140]	; 0x8c
    33c4:	e5c31000 	strb	r1, [r3]
    33c8:	e59d308c 	ldr	r3, [sp, #140]	; 0x8c
    33cc:	e1540003 	cmp	r4, r3
    33d0:	8afffff9 	bhi	33bc <_vfprintf_r+0x17f0>
    33d4:	e0663003 	rsb	r3, r6, r3
    33d8:	e3550047 	cmp	r5, #71	; 0x47
    33dc:	e58d303c 	str	r3, [sp, #60]	; 0x3c
    33e0:	0a000112 	beq	3830 <_vfprintf_r+0x1c64>
    33e4:	e3580065 	cmp	r8, #101	; 0x65
    33e8:	da0001d3 	ble	3b3c <_vfprintf_r+0x1f70>
    33ec:	e3580066 	cmp	r8, #102	; 0x66
    33f0:	0a000193 	beq	3a44 <_vfprintf_r+0x1e78>
    33f4:	e59d507c 	ldr	r5, [sp, #124]	; 0x7c
    33f8:	e58d5050 	str	r5, [sp, #80]	; 0x50
    33fc:	e59d4050 	ldr	r4, [sp, #80]	; 0x50
    3400:	e59d503c 	ldr	r5, [sp, #60]	; 0x3c
    3404:	e1540005 	cmp	r4, r5
    3408:	ba000162 	blt	3998 <_vfprintf_r+0x1dcc>
    340c:	e59dc020 	ldr	r12, [sp, #32]
    3410:	e31c0001 	tst	r12, #1
    3414:	159d3050 	ldrne	r3, [sp, #80]	; 0x50
    3418:	058d4038 	streq	r4, [sp, #56]	; 0x38
    341c:	12833001 	addne	r3, r3, #1
    3420:	158d3038 	strne	r3, [sp, #56]	; 0x38
    3424:	01c43fc4 	biceq	r3, r4, r4, asr #31
    3428:	11c33fc3 	bicne	r3, r3, r3, asr #31
    342c:	e3a08067 	mov	r8, #103	; 0x67
    3430:	e35b0000 	cmp	r11, #0
    3434:	1a0000f2 	bne	3804 <_vfprintf_r+0x1c38>
    3438:	e59dc04c 	ldr	r12, [sp, #76]	; 0x4c
    343c:	e58d3030 	str	r3, [sp, #48]	; 0x30
    3440:	e58dc020 	str	r12, [sp, #32]
    3444:	e58db02c 	str	r11, [sp, #44]	; 0x2c
    3448:	e5dda077 	ldrb	r10, [sp, #119]	; 0x77
    344c:	eafffb0e 	b	208c <_vfprintf_r+0x4c0>
    3450:	e593c000 	ldr	r12, [r3]
    3454:	e5934004 	ldr	r4, [r3, #4]
    3458:	e2833008 	add	r3, r3, #8
    345c:	e58dc058 	str	r12, [sp, #88]	; 0x58
    3460:	e58d4060 	str	r4, [sp, #96]	; 0x60
    3464:	e58d3044 	str	r3, [sp, #68]	; 0x44
    3468:	eafffbc0 	b	2370 <_vfprintf_r+0x7a4>
    346c:	e59dc020 	ldr	r12, [sp, #32]
    3470:	e31c0010 	tst	r12, #16
    3474:	1a00006c 	bne	362c <_vfprintf_r+0x1a60>
    3478:	e59dc020 	ldr	r12, [sp, #32]
    347c:	e31c0040 	tst	r12, #64	; 0x40
    3480:	0a0000d8 	beq	37e8 <_vfprintf_r+0x1c1c>
    3484:	e59d4044 	ldr	r4, [sp, #68]	; 0x44
    3488:	e59d5048 	ldr	r5, [sp, #72]	; 0x48
    348c:	e5943000 	ldr	r3, [r4]
    3490:	e2844004 	add	r4, r4, #4
    3494:	e58d4044 	str	r4, [sp, #68]	; 0x44
    3498:	e1c350b0 	strh	r5, [r3]
    349c:	eafff9fd 	b	1c98 <_vfprintf_r+0xcc>
    34a0:	e59d4020 	ldr	r4, [sp, #32]
    34a4:	e59d5044 	ldr	r5, [sp, #68]	; 0x44
    34a8:	e3140040 	tst	r4, #64	; 0x40
    34ac:	11d540f0 	ldrshne	r4, [r5]
    34b0:	05954000 	ldreq	r4, [r5]
    34b4:	e59dc044 	ldr	r12, [sp, #68]	; 0x44
    34b8:	e1a05fc4 	asr	r5, r4, #31
    34bc:	e28cc004 	add	r12, r12, #4
    34c0:	e58dc044 	str	r12, [sp, #68]	; 0x44
    34c4:	e1a02004 	mov	r2, r4
    34c8:	e1a03005 	mov	r3, r5
    34cc:	eafffb93 	b	2320 <_vfprintf_r+0x754>
    34d0:	e59dc020 	ldr	r12, [sp, #32]
    34d4:	e21c3040 	ands	r3, r12, #64	; 0x40
    34d8:	159d5044 	ldrne	r5, [sp, #68]	; 0x44
    34dc:	059dc044 	ldreq	r12, [sp, #68]	; 0x44
    34e0:	11d540b0 	ldrhne	r4, [r5]
    34e4:	059c4000 	ldreq	r4, [r12]
    34e8:	12855004 	addne	r5, r5, #4
    34ec:	028cc004 	addeq	r12, r12, #4
    34f0:	158d5044 	strne	r5, [sp, #68]	; 0x44
    34f4:	11a03002 	movne	r3, r2
    34f8:	058dc044 	streq	r12, [sp, #68]	; 0x44
    34fc:	e3a05000 	mov	r5, #0
    3500:	eafffab6 	b	1fe0 <_vfprintf_r+0x414>
    3504:	e59d0034 	ldr	r0, [sp, #52]	; 0x34
    3508:	e59d1028 	ldr	r1, [sp, #40]	; 0x28
    350c:	e28d2094 	add	r2, sp, #148	; 0x94
    3510:	eb0012f6 	bl	80f0 <__sprint_r>
    3514:	e3500000 	cmp	r0, #0
    3518:	1afffa98 	bne	1f80 <_vfprintf_r+0x3b4>
    351c:	e59d409c 	ldr	r4, [sp, #156]	; 0x9c
    3520:	e28d70c8 	add	r7, sp, #200	; 0xc8
    3524:	eafffd53 	b	2a78 <_vfprintf_r+0xeac>
    3528:	e59d2098 	ldr	r2, [sp, #152]	; 0x98
    352c:	e51fc958 	ldr	r12, [pc, #-2392]	; 2bdc <_vfprintf_r+0x1010>
    3530:	e2822001 	add	r2, r2, #1
    3534:	e2844001 	add	r4, r4, #1
    3538:	e3a01001 	mov	r1, #1
    353c:	e3520007 	cmp	r2, #7
    3540:	e58d409c 	str	r4, [sp, #156]	; 0x9c
    3544:	e587c000 	str	r12, [r7]
    3548:	e58d2098 	str	r2, [sp, #152]	; 0x98
    354c:	e5871004 	str	r1, [r7, #4]
    3550:	ca00004a 	bgt	3680 <_vfprintf_r+0x1ab4>
    3554:	e2877008 	add	r7, r7, #8
    3558:	e1a08003 	mov	r8, r3
    355c:	e3580000 	cmp	r8, #0
    3560:	1a000005 	bne	357c <_vfprintf_r+0x19b0>
    3564:	e59d503c 	ldr	r5, [sp, #60]	; 0x3c
    3568:	e3550000 	cmp	r5, #0
    356c:	1a000002 	bne	357c <_vfprintf_r+0x19b0>
    3570:	e59dc020 	ldr	r12, [sp, #32]
    3574:	e31c0001 	tst	r12, #1
    3578:	0afffce5 	beq	2914 <_vfprintf_r+0xd48>
    357c:	e59d3098 	ldr	r3, [sp, #152]	; 0x98
    3580:	e59d505c 	ldr	r5, [sp, #92]	; 0x5c
    3584:	e2833001 	add	r3, r3, #1
    3588:	e59dc054 	ldr	r12, [sp, #84]	; 0x54
    358c:	e0844005 	add	r4, r4, r5
    3590:	e3530007 	cmp	r3, #7
    3594:	e587c000 	str	r12, [r7]
    3598:	e5875004 	str	r5, [r7, #4]
    359c:	e58d409c 	str	r4, [sp, #156]	; 0x9c
    35a0:	e58d3098 	str	r3, [sp, #152]	; 0x98
    35a4:	d2877008 	addle	r7, r7, #8
    35a8:	ca0000ef 	bgt	396c <_vfprintf_r+0x1da0>
    35ac:	e2688000 	rsb	r8, r8, #0
    35b0:	e3580000 	cmp	r8, #0
    35b4:	da000056 	ble	3714 <_vfprintf_r+0x1b48>
    35b8:	e3580010 	cmp	r8, #16
    35bc:	e51f59e4 	ldr	r5, [pc, #-2532]	; 2be0 <_vfprintf_r+0x1014>
    35c0:	da000042 	ble	36d0 <_vfprintf_r+0x1b04>
    35c4:	e1a02004 	mov	r2, r4
    35c8:	e3a0a010 	mov	r10, #16
    35cc:	e59db034 	ldr	r11, [sp, #52]	; 0x34
    35d0:	e59d4028 	ldr	r4, [sp, #40]	; 0x28
    35d4:	ea000002 	b	35e4 <_vfprintf_r+0x1a18>
    35d8:	e2488010 	sub	r8, r8, #16
    35dc:	e3580010 	cmp	r8, #16
    35e0:	da000039 	ble	36cc <_vfprintf_r+0x1b00>
    35e4:	e2833001 	add	r3, r3, #1
    35e8:	e3530007 	cmp	r3, #7
    35ec:	e2822010 	add	r2, r2, #16
    35f0:	e8870600 	stm	r7, {r9, r10}
    35f4:	e58d3098 	str	r3, [sp, #152]	; 0x98
    35f8:	e58d209c 	str	r2, [sp, #156]	; 0x9c
    35fc:	d2877008 	addle	r7, r7, #8
    3600:	dafffff4 	ble	35d8 <_vfprintf_r+0x1a0c>
    3604:	e1a0000b 	mov	r0, r11
    3608:	e1a01004 	mov	r1, r4
    360c:	e28d2094 	add	r2, sp, #148	; 0x94
    3610:	eb0012b6 	bl	80f0 <__sprint_r>
    3614:	e3500000 	cmp	r0, #0
    3618:	1afffa58 	bne	1f80 <_vfprintf_r+0x3b4>
    361c:	e59d209c 	ldr	r2, [sp, #156]	; 0x9c
    3620:	e59d3098 	ldr	r3, [sp, #152]	; 0x98
    3624:	e28d70c8 	add	r7, sp, #200	; 0xc8
    3628:	eaffffea 	b	35d8 <_vfprintf_r+0x1a0c>
    362c:	e59d4044 	ldr	r4, [sp, #68]	; 0x44
    3630:	e59d5048 	ldr	r5, [sp, #72]	; 0x48
    3634:	e5943000 	ldr	r3, [r4]
    3638:	e2844004 	add	r4, r4, #4
    363c:	e58d4044 	str	r4, [sp, #68]	; 0x44
    3640:	e5835000 	str	r5, [r3]
    3644:	eafff993 	b	1c98 <_vfprintf_r+0xcc>
    3648:	e59dc020 	ldr	r12, [sp, #32]
    364c:	e51f3a70 	ldr	r3, [pc, #-2672]	; 2be4 <_vfprintf_r+0x1018>
    3650:	e3a05003 	mov	r5, #3
    3654:	e3ccc080 	bic	r12, r12, #128	; 0x80
    3658:	e3580047 	cmp	r8, #71	; 0x47
    365c:	e51f6a7c 	ldr	r6, [pc, #-2684]	; 2be8 <_vfprintf_r+0x101c>
    3660:	e58d002c 	str	r0, [sp, #44]	; 0x2c
    3664:	e58d5030 	str	r5, [sp, #48]	; 0x30
    3668:	e58dc020 	str	r12, [sp, #32]
    366c:	e58d0050 	str	r0, [sp, #80]	; 0x50
    3670:	d1a06003 	movle	r6, r3
    3674:	e58d5038 	str	r5, [sp, #56]	; 0x38
    3678:	e5dda077 	ldrb	r10, [sp, #119]	; 0x77
    367c:	eafffa82 	b	208c <_vfprintf_r+0x4c0>
    3680:	e59d0034 	ldr	r0, [sp, #52]	; 0x34
    3684:	e59d1028 	ldr	r1, [sp, #40]	; 0x28
    3688:	e28d2094 	add	r2, sp, #148	; 0x94
    368c:	eb001297 	bl	80f0 <__sprint_r>
    3690:	e3500000 	cmp	r0, #0
    3694:	1afffa39 	bne	1f80 <_vfprintf_r+0x3b4>
    3698:	e59d807c 	ldr	r8, [sp, #124]	; 0x7c
    369c:	e59d409c 	ldr	r4, [sp, #156]	; 0x9c
    36a0:	e28d70c8 	add	r7, sp, #200	; 0xc8
    36a4:	eaffffac 	b	355c <_vfprintf_r+0x1990>
    36a8:	e59d0034 	ldr	r0, [sp, #52]	; 0x34
    36ac:	e59d1028 	ldr	r1, [sp, #40]	; 0x28
    36b0:	e28d2094 	add	r2, sp, #148	; 0x94
    36b4:	eb00128d 	bl	80f0 <__sprint_r>
    36b8:	e3500000 	cmp	r0, #0
    36bc:	1afffa2f 	bne	1f80 <_vfprintf_r+0x3b4>
    36c0:	e59d409c 	ldr	r4, [sp, #156]	; 0x9c
    36c4:	e28d70c8 	add	r7, sp, #200	; 0xc8
    36c8:	eafffcfd 	b	2ac4 <_vfprintf_r+0xef8>
    36cc:	e1a04002 	mov	r4, r2
    36d0:	e2833001 	add	r3, r3, #1
    36d4:	e3530007 	cmp	r3, #7
    36d8:	e0844008 	add	r4, r4, r8
    36dc:	e8870120 	stm	r7, {r5, r8}
    36e0:	e58d3098 	str	r3, [sp, #152]	; 0x98
    36e4:	e58d409c 	str	r4, [sp, #156]	; 0x9c
    36e8:	d2877008 	addle	r7, r7, #8
    36ec:	da000008 	ble	3714 <_vfprintf_r+0x1b48>
    36f0:	e59d0034 	ldr	r0, [sp, #52]	; 0x34
    36f4:	e59d1028 	ldr	r1, [sp, #40]	; 0x28
    36f8:	e28d2094 	add	r2, sp, #148	; 0x94
    36fc:	eb00127b 	bl	80f0 <__sprint_r>
    3700:	e3500000 	cmp	r0, #0
    3704:	1afffa1d 	bne	1f80 <_vfprintf_r+0x3b4>
    3708:	e28d3098 	add	r3, sp, #152	; 0x98
    370c:	e8930018 	ldm	r3, {r3, r4}
    3710:	e28d70c8 	add	r7, sp, #200	; 0xc8
    3714:	e59d503c 	ldr	r5, [sp, #60]	; 0x3c
    3718:	e2833001 	add	r3, r3, #1
    371c:	e0854004 	add	r4, r5, r4
    3720:	e3530007 	cmp	r3, #7
    3724:	e58d3098 	str	r3, [sp, #152]	; 0x98
    3728:	e58d409c 	str	r4, [sp, #156]	; 0x9c
    372c:	e5876000 	str	r6, [r7]
    3730:	e5875004 	str	r5, [r7, #4]
    3734:	dafffc75 	ble	2910 <_vfprintf_r+0xd44>
    3738:	eafffd8d 	b	2d74 <_vfprintf_r+0x11a8>
    373c:	e58d502c 	str	r5, [sp, #44]	; 0x2c
    3740:	ebfff88b 	bl	1974 <strlen>
    3744:	e59dc02c 	ldr	r12, [sp, #44]	; 0x2c
    3748:	e1c05fc0 	bic	r5, r0, r0, asr #31
    374c:	e58d0038 	str	r0, [sp, #56]	; 0x38
    3750:	e58d4044 	str	r4, [sp, #68]	; 0x44
    3754:	e58d5030 	str	r5, [sp, #48]	; 0x30
    3758:	e58dc050 	str	r12, [sp, #80]	; 0x50
    375c:	e5dda077 	ldrb	r10, [sp, #119]	; 0x77
    3760:	eafffa49 	b	208c <_vfprintf_r+0x4c0>
    3764:	e59d0034 	ldr	r0, [sp, #52]	; 0x34
    3768:	e59d1028 	ldr	r1, [sp, #40]	; 0x28
    376c:	e28d2094 	add	r2, sp, #148	; 0x94
    3770:	eb00125e 	bl	80f0 <__sprint_r>
    3774:	e3500000 	cmp	r0, #0
    3778:	1afffa00 	bne	1f80 <_vfprintf_r+0x3b4>
    377c:	e59d409c 	ldr	r4, [sp, #156]	; 0x9c
    3780:	e28d70c8 	add	r7, sp, #200	; 0xc8
    3784:	eafffdb3 	b	2e58 <_vfprintf_r+0x128c>
    3788:	e59d0034 	ldr	r0, [sp, #52]	; 0x34
    378c:	e59d1028 	ldr	r1, [sp, #40]	; 0x28
    3790:	e28d2094 	add	r2, sp, #148	; 0x94
    3794:	eb001255 	bl	80f0 <__sprint_r>
    3798:	e3500000 	cmp	r0, #0
    379c:	1afff9f7 	bne	1f80 <_vfprintf_r+0x3b4>
    37a0:	e59d307c 	ldr	r3, [sp, #124]	; 0x7c
    37a4:	e59dc03c 	ldr	r12, [sp, #60]	; 0x3c
    37a8:	e59d409c 	ldr	r4, [sp, #156]	; 0x9c
    37ac:	e063300c 	rsb	r3, r3, r12
    37b0:	e28d70c8 	add	r7, sp, #200	; 0xc8
    37b4:	eafffe43 	b	30c8 <_vfprintf_r+0x14fc>
    37b8:	e59d502c 	ldr	r5, [sp, #44]	; 0x2c
    37bc:	e3550006 	cmp	r5, #6
    37c0:	23a05006 	movcs	r5, #6
    37c4:	e1c5cfc5 	bic	r12, r5, r5, asr #31
    37c8:	e1a0a006 	mov	r10, r6
    37cc:	e58d602c 	str	r6, [sp, #44]	; 0x2c
    37d0:	e58d6050 	str	r6, [sp, #80]	; 0x50
    37d4:	e58d5038 	str	r5, [sp, #56]	; 0x38
    37d8:	e58d4044 	str	r4, [sp, #68]	; 0x44
    37dc:	e58dc030 	str	r12, [sp, #48]	; 0x30
    37e0:	e51f6bfc 	ldr	r6, [pc, #-3068]	; 2bec <_vfprintf_r+0x1020>
    37e4:	eafffa28 	b	208c <_vfprintf_r+0x4c0>
    37e8:	e59dc044 	ldr	r12, [sp, #68]	; 0x44
    37ec:	e59d4048 	ldr	r4, [sp, #72]	; 0x48
    37f0:	e59c3000 	ldr	r3, [r12]
    37f4:	e28cc004 	add	r12, r12, #4
    37f8:	e58dc044 	str	r12, [sp, #68]	; 0x44
    37fc:	e5834000 	str	r4, [r3]
    3800:	eafff924 	b	1c98 <_vfprintf_r+0xcc>
    3804:	e59d404c 	ldr	r4, [sp, #76]	; 0x4c
    3808:	e3a0a02d 	mov	r10, #45	; 0x2d
    380c:	e3a05000 	mov	r5, #0
    3810:	e58d3030 	str	r3, [sp, #48]	; 0x30
    3814:	e58d4020 	str	r4, [sp, #32]
    3818:	e5cda077 	strb	r10, [sp, #119]	; 0x77
    381c:	e58d502c 	str	r5, [sp, #44]	; 0x2c
    3820:	eafffa1b 	b	2094 <_vfprintf_r+0x4c8>
    3824:	e59d308c 	ldr	r3, [sp, #140]	; 0x8c
    3828:	e0603003 	rsb	r3, r0, r3
    382c:	e58d303c 	str	r3, [sp, #60]	; 0x3c
    3830:	e59d307c 	ldr	r3, [sp, #124]	; 0x7c
    3834:	e3730003 	cmn	r3, #3
    3838:	ba00002c 	blt	38f0 <_vfprintf_r+0x1d24>
    383c:	e59d402c 	ldr	r4, [sp, #44]	; 0x2c
    3840:	e1540003 	cmp	r4, r3
    3844:	ba000029 	blt	38f0 <_vfprintf_r+0x1d24>
    3848:	e58d3050 	str	r3, [sp, #80]	; 0x50
    384c:	eafffeea 	b	33fc <_vfprintf_r+0x1830>
    3850:	e3a01003 	mov	r1, #3
    3854:	e28d007c 	add	r0, sp, #124	; 0x7c
    3858:	e59dc02c 	ldr	r12, [sp, #44]	; 0x2c
    385c:	e58d1000 	str	r1, [sp]
    3860:	e58d0008 	str	r0, [sp, #8]
    3864:	e28d1080 	add	r1, sp, #128	; 0x80
    3868:	e28d008c 	add	r0, sp, #140	; 0x8c
    386c:	e58d0010 	str	r0, [sp, #16]
    3870:	e59d2058 	ldr	r2, [sp, #88]	; 0x58
    3874:	e1a0300a 	mov	r3, r10
    3878:	e58dc004 	str	r12, [sp, #4]
    387c:	e58d100c 	str	r1, [sp, #12]
    3880:	e59d0034 	ldr	r0, [sp, #52]	; 0x34
    3884:	eb00027f 	bl	4288 <_dtoa_r>
    3888:	e3550047 	cmp	r5, #71	; 0x47
    388c:	e1a06000 	mov	r6, r0
    3890:	1a000002 	bne	38a0 <_vfprintf_r+0x1cd4>
    3894:	e59dc020 	ldr	r12, [sp, #32]
    3898:	e31c0001 	tst	r12, #1
    389c:	0affffe0 	beq	3824 <_vfprintf_r+0x1c58>
    38a0:	e59dc02c 	ldr	r12, [sp, #44]	; 0x2c
    38a4:	e3540000 	cmp	r4, #0
    38a8:	e086400c 	add	r4, r6, r12
    38ac:	0afffeb6 	beq	338c <_vfprintf_r+0x17c0>
    38b0:	e5d63000 	ldrb	r3, [r6]
    38b4:	e3530030 	cmp	r3, #48	; 0x30
    38b8:	0a00006e 	beq	3a78 <_vfprintf_r+0x1eac>
    38bc:	e59d307c 	ldr	r3, [sp, #124]	; 0x7c
    38c0:	e0844003 	add	r4, r4, r3
    38c4:	eafffeb0 	b	338c <_vfprintf_r+0x17c0>
    38c8:	e59d502c 	ldr	r5, [sp, #44]	; 0x2c
    38cc:	e59dc02c 	ldr	r12, [sp, #44]	; 0x2c
    38d0:	e1c55fc5 	bic	r5, r5, r5, asr #31
    38d4:	e58d5030 	str	r5, [sp, #48]	; 0x30
    38d8:	e58dc038 	str	r12, [sp, #56]	; 0x38
    38dc:	e58d002c 	str	r0, [sp, #44]	; 0x2c
    38e0:	e58d4044 	str	r4, [sp, #68]	; 0x44
    38e4:	e58d0050 	str	r0, [sp, #80]	; 0x50
    38e8:	e5dda077 	ldrb	r10, [sp, #119]	; 0x77
    38ec:	eafff9e6 	b	208c <_vfprintf_r+0x4c0>
    38f0:	e2488002 	sub	r8, r8, #2
    38f4:	e2431001 	sub	r1, r3, #1
    38f8:	e3510000 	cmp	r1, #0
    38fc:	e58d107c 	str	r1, [sp, #124]	; 0x7c
    3900:	b2611000 	rsblt	r1, r1, #0
    3904:	b3a0302d 	movlt	r3, #45	; 0x2d
    3908:	a3a0302b 	movge	r3, #43	; 0x2b
    390c:	e3510009 	cmp	r1, #9
    3910:	e5cd8084 	strb	r8, [sp, #132]	; 0x84
    3914:	e5cd3085 	strb	r3, [sp, #133]	; 0x85
    3918:	ca00002a 	bgt	39c8 <_vfprintf_r+0x1dfc>
    391c:	e2811030 	add	r1, r1, #48	; 0x30
    3920:	e3a03030 	mov	r3, #48	; 0x30
    3924:	e5cd1087 	strb	r1, [sp, #135]	; 0x87
    3928:	e5cd3086 	strb	r3, [sp, #134]	; 0x86
    392c:	e28d3088 	add	r3, sp, #136	; 0x88
    3930:	e59d403c 	ldr	r4, [sp, #60]	; 0x3c
    3934:	e28d2084 	add	r2, sp, #132	; 0x84
    3938:	e0622003 	rsb	r2, r2, r3
    393c:	e0845002 	add	r5, r4, r2
    3940:	e3540001 	cmp	r4, #1
    3944:	e58d2064 	str	r2, [sp, #100]	; 0x64
    3948:	e58d5038 	str	r5, [sp, #56]	; 0x38
    394c:	da000074 	ble	3b24 <_vfprintf_r+0x1f58>
    3950:	e59d3038 	ldr	r3, [sp, #56]	; 0x38
    3954:	e3a04000 	mov	r4, #0
    3958:	e2833001 	add	r3, r3, #1
    395c:	e58d3038 	str	r3, [sp, #56]	; 0x38
    3960:	e58d4050 	str	r4, [sp, #80]	; 0x50
    3964:	e1c33fc3 	bic	r3, r3, r3, asr #31
    3968:	eafffeb0 	b	3430 <_vfprintf_r+0x1864>
    396c:	e59d0034 	ldr	r0, [sp, #52]	; 0x34
    3970:	e59d1028 	ldr	r1, [sp, #40]	; 0x28
    3974:	e28d2094 	add	r2, sp, #148	; 0x94
    3978:	eb0011dc 	bl	80f0 <__sprint_r>
    397c:	e3500000 	cmp	r0, #0
    3980:	1afff97e 	bne	1f80 <_vfprintf_r+0x3b4>
    3984:	e28d3098 	add	r3, sp, #152	; 0x98
    3988:	e59d807c 	ldr	r8, [sp, #124]	; 0x7c
    398c:	e8930018 	ldm	r3, {r3, r4}
    3990:	e28d70c8 	add	r7, sp, #200	; 0xc8
    3994:	eaffff04 	b	35ac <_vfprintf_r+0x19e0>
    3998:	e59d4050 	ldr	r4, [sp, #80]	; 0x50
    399c:	e59d503c 	ldr	r5, [sp, #60]	; 0x3c
    39a0:	e3540000 	cmp	r4, #0
    39a4:	d2643002 	rsble	r3, r4, #2
    39a8:	c3a03001 	movgt	r3, #1
    39ac:	e0833005 	add	r3, r3, r5
    39b0:	e58d3038 	str	r3, [sp, #56]	; 0x38
    39b4:	e3a08067 	mov	r8, #103	; 0x67
    39b8:	e1c33fc3 	bic	r3, r3, r3, asr #31
    39bc:	eafffe9b 	b	3430 <_vfprintf_r+0x1864>
    39c0:	e3a01002 	mov	r1, #2
    39c4:	eaffffa2 	b	3854 <_vfprintf_r+0x1c88>
    39c8:	e28d2092 	add	r2, sp, #146	; 0x92
    39cc:	e51f0de4 	ldr	r0, [pc, #-3556]	; 2bf0 <_vfprintf_r+0x1024>
    39d0:	e0c05091 	smull	r5, r0, r1, r0
    39d4:	e1a03fc1 	asr	r3, r1, #31
    39d8:	e0633140 	rsb	r3, r3, r0, asr #2
    39dc:	e0830103 	add	r0, r3, r3, lsl #2
    39e0:	e0410080 	sub	r0, r1, r0, lsl #1
    39e4:	e1a01003 	mov	r1, r3
    39e8:	e3510009 	cmp	r1, #9
    39ec:	e1a03002 	mov	r3, r2
    39f0:	e2802030 	add	r2, r0, #48	; 0x30
    39f4:	e5c32000 	strb	r2, [r3]
    39f8:	e2432001 	sub	r2, r3, #1
    39fc:	cafffff2 	bgt	39cc <_vfprintf_r+0x1e00>
    3a00:	e2811030 	add	r1, r1, #48	; 0x30
    3a04:	e28dc093 	add	r12, sp, #147	; 0x93
    3a08:	e20110ff 	and	r1, r1, #255	; 0xff
    3a0c:	e15c0002 	cmp	r12, r2
    3a10:	e5431001 	strb	r1, [r3, #-1]
    3a14:	9a00004a 	bls	3b44 <_vfprintf_r+0x1f78>
    3a18:	e28d0085 	add	r0, sp, #133	; 0x85
    3a1c:	e1a02003 	mov	r2, r3
    3a20:	ea000000 	b	3a28 <_vfprintf_r+0x1e5c>
    3a24:	e4d21001 	ldrb	r1, [r2], #1
    3a28:	e152000c 	cmp	r2, r12
    3a2c:	e5e01001 	strb	r1, [r0, #1]!
    3a30:	1afffffb 	bne	3a24 <_vfprintf_r+0x1e58>
    3a34:	e28dcf42 	add	r12, sp, #264	; 0x108
    3a38:	e063308c 	rsb	r3, r3, r12, lsl #1
    3a3c:	e24330f6 	sub	r3, r3, #246	; 0xf6
    3a40:	eaffffba 	b	3930 <_vfprintf_r+0x1d64>
    3a44:	e59dc07c 	ldr	r12, [sp, #124]	; 0x7c
    3a48:	e35c0000 	cmp	r12, #0
    3a4c:	e58dc050 	str	r12, [sp, #80]	; 0x50
    3a50:	da00001a 	ble	3ac0 <_vfprintf_r+0x1ef4>
    3a54:	e59d402c 	ldr	r4, [sp, #44]	; 0x2c
    3a58:	e3540000 	cmp	r4, #0
    3a5c:	1a000010 	bne	3aa4 <_vfprintf_r+0x1ed8>
    3a60:	e59d5020 	ldr	r5, [sp, #32]
    3a64:	e3150001 	tst	r5, #1
    3a68:	1a00000d 	bne	3aa4 <_vfprintf_r+0x1ed8>
    3a6c:	e1cc3fcc 	bic	r3, r12, r12, asr #31
    3a70:	e58dc038 	str	r12, [sp, #56]	; 0x38
    3a74:	eafffe6d 	b	3430 <_vfprintf_r+0x1864>
    3a78:	e59d0058 	ldr	r0, [sp, #88]	; 0x58
    3a7c:	e1a0100a 	mov	r1, r10
    3a80:	e3a02000 	mov	r2, #0
    3a84:	e3a03000 	mov	r3, #0
    3a88:	eb001a78 	bl	a470 <__aeabi_dcmpeq>
    3a8c:	e3500000 	cmp	r0, #0
    3a90:	1affff89 	bne	38bc <_vfprintf_r+0x1cf0>
    3a94:	e59dc02c 	ldr	r12, [sp, #44]	; 0x2c
    3a98:	e26c3001 	rsb	r3, r12, #1
    3a9c:	e58d307c 	str	r3, [sp, #124]	; 0x7c
    3aa0:	eaffff86 	b	38c0 <_vfprintf_r+0x1cf4>
    3aa4:	e59dc02c 	ldr	r12, [sp, #44]	; 0x2c
    3aa8:	e59d4050 	ldr	r4, [sp, #80]	; 0x50
    3aac:	e28c3001 	add	r3, r12, #1
    3ab0:	e0843003 	add	r3, r4, r3
    3ab4:	e58d3038 	str	r3, [sp, #56]	; 0x38
    3ab8:	e1c33fc3 	bic	r3, r3, r3, asr #31
    3abc:	eafffe5b 	b	3430 <_vfprintf_r+0x1864>
    3ac0:	e59d502c 	ldr	r5, [sp, #44]	; 0x2c
    3ac4:	e3550000 	cmp	r5, #0
    3ac8:	1a000004 	bne	3ae0 <_vfprintf_r+0x1f14>
    3acc:	e59dc020 	ldr	r12, [sp, #32]
    3ad0:	e31c0001 	tst	r12, #1
    3ad4:	03a03001 	moveq	r3, #1
    3ad8:	058d3038 	streq	r3, [sp, #56]	; 0x38
    3adc:	0afffe53 	beq	3430 <_vfprintf_r+0x1864>
    3ae0:	e59d302c 	ldr	r3, [sp, #44]	; 0x2c
    3ae4:	e2833002 	add	r3, r3, #2
    3ae8:	e58d3038 	str	r3, [sp, #56]	; 0x38
    3aec:	e1c33fc3 	bic	r3, r3, r3, asr #31
    3af0:	eafffe4e 	b	3430 <_vfprintf_r+0x1864>
    3af4:	e59d5044 	ldr	r5, [sp, #68]	; 0x44
    3af8:	e5955000 	ldr	r5, [r5]
    3afc:	e59dc044 	ldr	r12, [sp, #68]	; 0x44
    3b00:	e3550000 	cmp	r5, #0
    3b04:	e28c1004 	add	r1, r12, #4
    3b08:	b3e04000 	mvnlt	r4, #0
    3b0c:	e58d502c 	str	r5, [sp, #44]	; 0x2c
    3b10:	e5d38001 	ldrb	r8, [r3, #1]
    3b14:	e58d1044 	str	r1, [sp, #68]	; 0x44
    3b18:	e1a03000 	mov	r3, r0
    3b1c:	b58d402c 	strlt	r4, [sp, #44]	; 0x2c
    3b20:	eafff887 	b	1d44 <_vfprintf_r+0x178>
    3b24:	e59dc020 	ldr	r12, [sp, #32]
    3b28:	e21c3001 	ands	r3, r12, #1
    3b2c:	1affff87 	bne	3950 <_vfprintf_r+0x1d84>
    3b30:	e58d3050 	str	r3, [sp, #80]	; 0x50
    3b34:	e1c53fc5 	bic	r3, r5, r5, asr #31
    3b38:	eafffe3c 	b	3430 <_vfprintf_r+0x1864>
    3b3c:	e59d307c 	ldr	r3, [sp, #124]	; 0x7c
    3b40:	eaffff6b 	b	38f4 <_vfprintf_r+0x1d28>
    3b44:	e28d3086 	add	r3, sp, #134	; 0x86
    3b48:	eaffff78 	b	3930 <_vfprintf_r+0x1d64>

00003b4c <vfprintf>:
    3b4c:	e59fc01c 	ldr	r12, [pc, #28]	; 3b70 <vfprintf+0x24>
    3b50:	e52d4004 	push	{r4}		; (str r4, [sp, #-4]!)
    3b54:	e1a04001 	mov	r4, r1
    3b58:	e1a03002 	mov	r3, r2
    3b5c:	e1a01000 	mov	r1, r0
    3b60:	e1a02004 	mov	r2, r4
    3b64:	e59c0000 	ldr	r0, [r12]
    3b68:	e49d4004 	pop	{r4}		; (ldr r4, [sp], #4)
    3b6c:	eafff816 	b	1bcc <_vfprintf_r>
    3b70:	0000bb38 	.word	0x0000bb38

00003b74 <__sbprintf>:
    3b74:	e92d4ff0 	push	{r4, r5, r6, r7, r8, r9, r10, r11, lr}
    3b78:	e24dde46 	sub	sp, sp, #1120	; 0x460
    3b7c:	e24dd00c 	sub	sp, sp, #12
    3b80:	e1d150bc 	ldrh	r5, [r1, #12]
    3b84:	e59fc0b0 	ldr	r12, [pc, #176]	; 3c3c <__sbprintf+0xc8>
    3b88:	e28dbe46 	add	r11, sp, #1120	; 0x460
    3b8c:	e5916024 	ldr	r6, [r1, #36]	; 0x24
    3b90:	e591a064 	ldr	r10, [r1, #100]	; 0x64
    3b94:	e1d190be 	ldrh	r9, [r1, #14]
    3b98:	e591701c 	ldr	r7, [r1, #28]
    3b9c:	e3c55002 	bic	r5, r5, #2
    3ba0:	e28bb008 	add	r11, r11, #8
    3ba4:	e59f8094 	ldr	r8, [pc, #148]	; 3c40 <__sbprintf+0xcc>
    3ba8:	e28de068 	add	lr, sp, #104	; 0x68
    3bac:	e18b50bc 	strh	r5, [r11, r12]
    3bb0:	e1a04001 	mov	r4, r1
    3bb4:	e3a0cb01 	mov	r12, #1024	; 0x400
    3bb8:	e3a05000 	mov	r5, #0
    3bbc:	e1a0100d 	mov	r1, sp
    3bc0:	e58d6024 	str	r6, [sp, #36]	; 0x24
    3bc4:	e58d5018 	str	r5, [sp, #24]
    3bc8:	e58da064 	str	r10, [sp, #100]	; 0x64
    3bcc:	e18b90b8 	strh	r9, [r11, r8]
    3bd0:	e58d701c 	str	r7, [sp, #28]
    3bd4:	e58de000 	str	lr, [sp]
    3bd8:	e58de010 	str	lr, [sp, #16]
    3bdc:	e58dc008 	str	r12, [sp, #8]
    3be0:	e58dc014 	str	r12, [sp, #20]
    3be4:	e1a06000 	mov	r6, r0
    3be8:	ebfff7f7 	bl	1bcc <_vfprintf_r>
    3bec:	e2505000 	subs	r5, r0, #0
    3bf0:	ba000004 	blt	3c08 <__sbprintf+0x94>
    3bf4:	e1a00006 	mov	r0, r6
    3bf8:	e1a0100d 	mov	r1, sp
    3bfc:	eb000831 	bl	5cc8 <_fflush_r>
    3c00:	e3500000 	cmp	r0, #0
    3c04:	13e05000 	mvnne	r5, #0
    3c08:	e28d2e46 	add	r2, sp, #1120	; 0x460
    3c0c:	e59f3028 	ldr	r3, [pc, #40]	; 3c3c <__sbprintf+0xc8>
    3c10:	e2822008 	add	r2, r2, #8
    3c14:	e19230b3 	ldrh	r3, [r2, r3]
    3c18:	e3130040 	tst	r3, #64	; 0x40
    3c1c:	11d430bc 	ldrhne	r3, [r4, #12]
    3c20:	e1a00005 	mov	r0, r5
    3c24:	13833040 	orrne	r3, r3, #64	; 0x40
    3c28:	11c430bc 	strhne	r3, [r4, #12]
    3c2c:	e28dde46 	add	sp, sp, #1120	; 0x460
    3c30:	e28dd00c 	add	sp, sp, #12
    3c34:	e8bd4ff0 	pop	{r4, r5, r6, r7, r8, r9, r10, r11, lr}
    3c38:	e12fff1e 	bx	lr
    3c3c:	fffffba4 	.word	0xfffffba4
    3c40:	fffffba6 	.word	0xfffffba6

00003c44 <_write_r>:
    3c44:	e92d4038 	push	{r3, r4, r5, lr}
    3c48:	e59f4034 	ldr	r4, [pc, #52]	; 3c84 <_write_r+0x40>
    3c4c:	e3a0c000 	mov	r12, #0
    3c50:	e1a05000 	mov	r5, r0
    3c54:	e1a00001 	mov	r0, r1
    3c58:	e1a01002 	mov	r1, r2
    3c5c:	e1a02003 	mov	r2, r3
    3c60:	e584c000 	str	r12, [r4]
    3c64:	eb001d67 	bl	b208 <_write>
    3c68:	e3700001 	cmn	r0, #1
    3c6c:	1a000002 	bne	3c7c <_write_r+0x38>
    3c70:	e5943000 	ldr	r3, [r4]
    3c74:	e3530000 	cmp	r3, #0
    3c78:	15853000 	strne	r3, [r5]
    3c7c:	e8bd4038 	pop	{r3, r4, r5, lr}
    3c80:	e12fff1e 	bx	lr
    3c84:	0000c464 	.word	0x0000c464

00003c88 <__swsetup_r>:
    3c88:	e92d4038 	push	{r3, r4, r5, lr}
    3c8c:	e59f314c 	ldr	r3, [pc, #332]	; 3de0 <__swsetup_r+0x158>
    3c90:	e5933000 	ldr	r3, [r3]
    3c94:	e3530000 	cmp	r3, #0
    3c98:	e1a05000 	mov	r5, r0
    3c9c:	e1a04001 	mov	r4, r1
    3ca0:	0a000002 	beq	3cb0 <__swsetup_r+0x28>
    3ca4:	e5932038 	ldr	r2, [r3, #56]	; 0x38
    3ca8:	e3520000 	cmp	r2, #0
    3cac:	0a000032 	beq	3d7c <__swsetup_r+0xf4>
    3cb0:	e1d4c0bc 	ldrh	r12, [r4, #12]
    3cb4:	e31c0008 	tst	r12, #8
    3cb8:	e1a0300c 	mov	r3, r12
    3cbc:	0a00000c 	beq	3cf4 <__swsetup_r+0x6c>
    3cc0:	e5942010 	ldr	r2, [r4, #16]
    3cc4:	e3520000 	cmp	r2, #0
    3cc8:	0a000012 	beq	3d18 <__swsetup_r+0x90>
    3ccc:	e2131001 	ands	r1, r3, #1
    3cd0:	1a000019 	bne	3d3c <__swsetup_r+0xb4>
    3cd4:	e3130002 	tst	r3, #2
    3cd8:	05941014 	ldreq	r1, [r4, #20]
    3cdc:	e3520000 	cmp	r2, #0
    3ce0:	e5841008 	str	r1, [r4, #8]
    3ce4:	13a00000 	movne	r0, #0
    3ce8:	0a00001b 	beq	3d5c <__swsetup_r+0xd4>
    3cec:	e8bd4038 	pop	{r3, r4, r5, lr}
    3cf0:	e12fff1e 	bx	lr
    3cf4:	e31c0010 	tst	r12, #16
    3cf8:	0a000032 	beq	3dc8 <__swsetup_r+0x140>
    3cfc:	e31c0004 	tst	r12, #4
    3d00:	1a000020 	bne	3d88 <__swsetup_r+0x100>
    3d04:	e5942010 	ldr	r2, [r4, #16]
    3d08:	e38c3008 	orr	r3, r12, #8
    3d0c:	e3520000 	cmp	r2, #0
    3d10:	e1c430bc 	strh	r3, [r4, #12]
    3d14:	1affffec 	bne	3ccc <__swsetup_r+0x44>
    3d18:	e2031d0a 	and	r1, r3, #640	; 0x280
    3d1c:	e3510c02 	cmp	r1, #512	; 0x200
    3d20:	0affffe9 	beq	3ccc <__swsetup_r+0x44>
    3d24:	e1a00005 	mov	r0, r5
    3d28:	e1a01004 	mov	r1, r4
    3d2c:	eb000a6f 	bl	66f0 <__smakebuf_r>
    3d30:	e1d430bc 	ldrh	r3, [r4, #12]
    3d34:	e5942010 	ldr	r2, [r4, #16]
    3d38:	eaffffe3 	b	3ccc <__swsetup_r+0x44>
    3d3c:	e5941014 	ldr	r1, [r4, #20]
    3d40:	e3a03000 	mov	r3, #0
    3d44:	e2611000 	rsb	r1, r1, #0
    3d48:	e3520000 	cmp	r2, #0
    3d4c:	e5841018 	str	r1, [r4, #24]
    3d50:	e5843008 	str	r3, [r4, #8]
    3d54:	13a00000 	movne	r0, #0
    3d58:	1affffe3 	bne	3cec <__swsetup_r+0x64>
    3d5c:	e1d430bc 	ldrh	r3, [r4, #12]
    3d60:	e3130080 	tst	r3, #128	; 0x80
    3d64:	13833040 	orrne	r3, r3, #64	; 0x40
    3d68:	11c430bc 	strhne	r3, [r4, #12]
    3d6c:	13e00000 	mvnne	r0, #0
    3d70:	01a00002 	moveq	r0, r2
    3d74:	e8bd4038 	pop	{r3, r4, r5, lr}
    3d78:	e12fff1e 	bx	lr
    3d7c:	e1a00003 	mov	r0, r3
    3d80:	ebfff26d 	bl	73c <__sinit>
    3d84:	eaffffc9 	b	3cb0 <__swsetup_r+0x28>
    3d88:	e5941030 	ldr	r1, [r4, #48]	; 0x30
    3d8c:	e3510000 	cmp	r1, #0
    3d90:	0a000007 	beq	3db4 <__swsetup_r+0x12c>
    3d94:	e2843040 	add	r3, r4, #64	; 0x40
    3d98:	e1510003 	cmp	r1, r3
    3d9c:	0a000002 	beq	3dac <__swsetup_r+0x124>
    3da0:	e1a00005 	mov	r0, r5
    3da4:	eb00083d 	bl	5ea0 <_free_r>
    3da8:	e1d4c0bc 	ldrh	r12, [r4, #12]
    3dac:	e3a03000 	mov	r3, #0
    3db0:	e5843030 	str	r3, [r4, #48]	; 0x30
    3db4:	e5942010 	ldr	r2, [r4, #16]
    3db8:	e3a03000 	mov	r3, #0
    3dbc:	e3ccc024 	bic	r12, r12, #36	; 0x24
    3dc0:	e884000c 	stm	r4, {r2, r3}
    3dc4:	eaffffcf 	b	3d08 <__swsetup_r+0x80>
    3dc8:	e38cc040 	orr	r12, r12, #64	; 0x40
    3dcc:	e3a03009 	mov	r3, #9
    3dd0:	e5853000 	str	r3, [r5]
    3dd4:	e3e00000 	mvn	r0, #0
    3dd8:	e1c4c0bc 	strh	r12, [r4, #12]
    3ddc:	eaffffc2 	b	3cec <__swsetup_r+0x64>
    3de0:	0000bb38 	.word	0x0000bb38

00003de4 <__register_exitproc>:
    3de4:	e59fc0e0 	ldr	r12, [pc, #224]	; 3ecc <__register_exitproc+0xe8>
    3de8:	e92d4070 	push	{r4, r5, r6, lr}
    3dec:	e59c5000 	ldr	r5, [r12]
    3df0:	e595c148 	ldr	r12, [r5, #328]	; 0x148
    3df4:	e35c0000 	cmp	r12, #0
    3df8:	0285cf53 	addeq	r12, r5, #332	; 0x14c
    3dfc:	e59c4004 	ldr	r4, [r12, #4]
    3e00:	0585c148 	streq	r12, [r5, #328]	; 0x148
    3e04:	e354001f 	cmp	r4, #31
    3e08:	e24dd010 	sub	sp, sp, #16
    3e0c:	e1a06000 	mov	r6, r0
    3e10:	da000016 	ble	3e70 <__register_exitproc+0x8c>
    3e14:	e59f00b4 	ldr	r0, [pc, #180]	; 3ed0 <__register_exitproc+0xec>
    3e18:	e3500000 	cmp	r0, #0
    3e1c:	1a000003 	bne	3e30 <__register_exitproc+0x4c>
    3e20:	e3e00000 	mvn	r0, #0
    3e24:	e28dd010 	add	sp, sp, #16
    3e28:	e8bd4070 	pop	{r4, r5, r6, lr}
    3e2c:	e12fff1e 	bx	lr
    3e30:	e3a00e19 	mov	r0, #400	; 0x190
    3e34:	e58d100c 	str	r1, [sp, #12]
    3e38:	e58d2008 	str	r2, [sp, #8]
    3e3c:	e58d3004 	str	r3, [sp, #4]
    3e40:	e320f000 	nop	{0}
    3e44:	e250c000 	subs	r12, r0, #0
    3e48:	e59d100c 	ldr	r1, [sp, #12]
    3e4c:	e59d2008 	ldr	r2, [sp, #8]
    3e50:	e59d3004 	ldr	r3, [sp, #4]
    3e54:	0afffff1 	beq	3e20 <__register_exitproc+0x3c>
    3e58:	e5950148 	ldr	r0, [r5, #328]	; 0x148
    3e5c:	e3a04000 	mov	r4, #0
    3e60:	e88c0011 	stm	r12, {r0, r4}
    3e64:	e585c148 	str	r12, [r5, #328]	; 0x148
    3e68:	e58c4188 	str	r4, [r12, #392]	; 0x188
    3e6c:	e58c418c 	str	r4, [r12, #396]	; 0x18c
    3e70:	e3560000 	cmp	r6, #0
    3e74:	1a000007 	bne	3e98 <__register_exitproc+0xb4>
    3e78:	e2843001 	add	r3, r4, #1
    3e7c:	e3a00000 	mov	r0, #0
    3e80:	e2844002 	add	r4, r4, #2
    3e84:	e58c3004 	str	r3, [r12, #4]
    3e88:	e78c1104 	str	r1, [r12, r4, lsl #2]
    3e8c:	e28dd010 	add	sp, sp, #16
    3e90:	e8bd4070 	pop	{r4, r5, r6, lr}
    3e94:	e12fff1e 	bx	lr
    3e98:	e3a05001 	mov	r5, #1
    3e9c:	e1a05415 	lsl	r5, r5, r4
    3ea0:	e08c0104 	add	r0, r12, r4, lsl #2
    3ea4:	e5802088 	str	r2, [r0, #136]	; 0x88
    3ea8:	e59c2188 	ldr	r2, [r12, #392]	; 0x188
    3eac:	e1822005 	orr	r2, r2, r5
    3eb0:	e58c2188 	str	r2, [r12, #392]	; 0x188
    3eb4:	e5803108 	str	r3, [r0, #264]	; 0x108
    3eb8:	e3560002 	cmp	r6, #2
    3ebc:	059c318c 	ldreq	r3, [r12, #396]	; 0x18c
    3ec0:	01835005 	orreq	r5, r3, r5
    3ec4:	058c518c 	streq	r5, [r12, #396]	; 0x18c
    3ec8:	eaffffea 	b	3e78 <__register_exitproc+0x94>
    3ecc:	0000b804 	.word	0x0000b804
    3ed0:	00000000 	.word	0x00000000

00003ed4 <__call_exitprocs>:
    3ed4:	e92d4ff0 	push	{r4, r5, r6, r7, r8, r9, r10, r11, lr}
    3ed8:	e59f315c 	ldr	r3, [pc, #348]	; 403c <__call_exitprocs+0x168>
    3edc:	e5933000 	ldr	r3, [r3]
    3ee0:	e24dd014 	sub	sp, sp, #20
    3ee4:	e2832f52 	add	r2, r3, #328	; 0x148
    3ee8:	e58d3004 	str	r3, [sp, #4]
    3eec:	e58d0008 	str	r0, [sp, #8]
    3ef0:	e58d200c 	str	r2, [sp, #12]
    3ef4:	e1a07001 	mov	r7, r1
    3ef8:	e3a09001 	mov	r9, #1
    3efc:	e59d3004 	ldr	r3, [sp, #4]
    3f00:	e5938148 	ldr	r8, [r3, #328]	; 0x148
    3f04:	e3580000 	cmp	r8, #0
    3f08:	0a000038 	beq	3ff0 <__call_exitprocs+0x11c>
    3f0c:	e59db00c 	ldr	r11, [sp, #12]
    3f10:	e5986004 	ldr	r6, [r8, #4]
    3f14:	e2564001 	subs	r4, r6, #1
    3f18:	50885106 	addpl	r5, r8, r6, lsl #2
    3f1c:	52866002 	addpl	r6, r6, #2
    3f20:	52855f42 	addpl	r5, r5, #264	; 0x108
    3f24:	50886106 	addpl	r6, r8, r6, lsl #2
    3f28:	5a000008 	bpl	3f50 <__call_exitprocs+0x7c>
    3f2c:	ea00002c 	b	3fe4 <__call_exitprocs+0x110>
    3f30:	e5153004 	ldr	r3, [r5, #-4]
    3f34:	e1530007 	cmp	r3, r7
    3f38:	0a000006 	beq	3f58 <__call_exitprocs+0x84>
    3f3c:	e2444001 	sub	r4, r4, #1
    3f40:	e3740001 	cmn	r4, #1
    3f44:	e2455004 	sub	r5, r5, #4
    3f48:	e2466004 	sub	r6, r6, #4
    3f4c:	0a000024 	beq	3fe4 <__call_exitprocs+0x110>
    3f50:	e3570000 	cmp	r7, #0
    3f54:	1afffff5 	bne	3f30 <__call_exitprocs+0x5c>
    3f58:	e5983004 	ldr	r3, [r8, #4]
    3f5c:	e2433001 	sub	r3, r3, #1
    3f60:	e1530004 	cmp	r3, r4
    3f64:	e5163004 	ldr	r3, [r6, #-4]
    3f68:	13a02000 	movne	r2, #0
    3f6c:	05884004 	streq	r4, [r8, #4]
    3f70:	15062004 	strne	r2, [r6, #-4]
    3f74:	e3530000 	cmp	r3, #0
    3f78:	0affffef 	beq	3f3c <__call_exitprocs+0x68>
    3f7c:	e1a02419 	lsl	r2, r9, r4
    3f80:	e5981188 	ldr	r1, [r8, #392]	; 0x188
    3f84:	e1120001 	tst	r2, r1
    3f88:	e598a004 	ldr	r10, [r8, #4]
    3f8c:	0a00000d 	beq	3fc8 <__call_exitprocs+0xf4>
    3f90:	e598118c 	ldr	r1, [r8, #396]	; 0x18c
    3f94:	e1120001 	tst	r2, r1
    3f98:	1a00000d 	bne	3fd4 <__call_exitprocs+0x100>
    3f9c:	e59d0008 	ldr	r0, [sp, #8]
    3fa0:	e5151084 	ldr	r1, [r5, #-132]	; 0xffffff7c
    3fa4:	e1a0e00f 	mov	lr, pc
    3fa8:	e12fff13 	bx	r3
    3fac:	e5983004 	ldr	r3, [r8, #4]
    3fb0:	e153000a 	cmp	r3, r10
    3fb4:	1affffd0 	bne	3efc <__call_exitprocs+0x28>
    3fb8:	e59b3000 	ldr	r3, [r11]
    3fbc:	e1530008 	cmp	r3, r8
    3fc0:	0affffdd 	beq	3f3c <__call_exitprocs+0x68>
    3fc4:	eaffffcc 	b	3efc <__call_exitprocs+0x28>
    3fc8:	e1a0e00f 	mov	lr, pc
    3fcc:	e12fff13 	bx	r3
    3fd0:	eafffff5 	b	3fac <__call_exitprocs+0xd8>
    3fd4:	e5150084 	ldr	r0, [r5, #-132]	; 0xffffff7c
    3fd8:	e1a0e00f 	mov	lr, pc
    3fdc:	e12fff13 	bx	r3
    3fe0:	eafffff1 	b	3fac <__call_exitprocs+0xd8>
    3fe4:	e59f2054 	ldr	r2, [pc, #84]	; 4040 <__call_exitprocs+0x16c>
    3fe8:	e3520000 	cmp	r2, #0
    3fec:	1a000002 	bne	3ffc <__call_exitprocs+0x128>
    3ff0:	e28dd014 	add	sp, sp, #20
    3ff4:	e8bd4ff0 	pop	{r4, r5, r6, r7, r8, r9, r10, r11, lr}
    3ff8:	e12fff1e 	bx	lr
    3ffc:	e5983004 	ldr	r3, [r8, #4]
    4000:	e3530000 	cmp	r3, #0
    4004:	e5983000 	ldr	r3, [r8]
    4008:	1a000008 	bne	4030 <__call_exitprocs+0x15c>
    400c:	e3530000 	cmp	r3, #0
    4010:	0a000006 	beq	4030 <__call_exitprocs+0x15c>
    4014:	e1a00008 	mov	r0, r8
    4018:	e58b3000 	str	r3, [r11]
    401c:	e320f000 	nop	{0}
    4020:	e59b8000 	ldr	r8, [r11]
    4024:	e3580000 	cmp	r8, #0
    4028:	1affffb8 	bne	3f10 <__call_exitprocs+0x3c>
    402c:	eaffffef 	b	3ff0 <__call_exitprocs+0x11c>
    4030:	e1a0b008 	mov	r11, r8
    4034:	e1a08003 	mov	r8, r3
    4038:	eafffff9 	b	4024 <__call_exitprocs+0x150>
    403c:	0000b804 	.word	0x0000b804
    4040:	00000000 	.word	0x00000000

00004044 <register_fini>:
    4044:	e92d4008 	push	{r3, lr}
    4048:	e59f3010 	ldr	r3, [pc, #16]	; 4060 <register_fini+0x1c>
    404c:	e3530000 	cmp	r3, #0
    4050:	159f000c 	ldrne	r0, [pc, #12]	; 4064 <register_fini+0x20>
    4054:	1bfff122 	blne	4e4 <atexit>
    4058:	e8bd4008 	pop	{r3, lr}
    405c:	e12fff1e 	bx	lr
    4060:	0000bb00 	.word	0x0000bb00
    4064:	00005d58 	.word	0x00005d58

00004068 <_close_r>:
    4068:	e92d4038 	push	{r3, r4, r5, lr}
    406c:	e59f402c 	ldr	r4, [pc, #44]	; 40a0 <_close_r+0x38>
    4070:	e3a03000 	mov	r3, #0
    4074:	e1a05000 	mov	r5, r0
    4078:	e1a00001 	mov	r0, r1
    407c:	e5843000 	str	r3, [r4]
    4080:	eb001bd4 	bl	afd8 <_close>
    4084:	e3700001 	cmn	r0, #1
    4088:	1a000002 	bne	4098 <_close_r+0x30>
    408c:	e5943000 	ldr	r3, [r4]
    4090:	e3530000 	cmp	r3, #0
    4094:	15853000 	strne	r3, [r5]
    4098:	e8bd4038 	pop	{r3, r4, r5, lr}
    409c:	e12fff1e 	bx	lr
    40a0:	0000c464 	.word	0x0000c464
    40a4:	00000000 	.word	0x00000000

000040a8 <quorem>:
    40a8:	e92d4ff0 	push	{r4, r5, r6, r7, r8, r9, r10, r11, lr}
    40ac:	e5903010 	ldr	r3, [r0, #16]
    40b0:	e5915010 	ldr	r5, [r1, #16]
    40b4:	e1550003 	cmp	r5, r3
    40b8:	e1a09000 	mov	r9, r0
    40bc:	e24dd00c 	sub	sp, sp, #12
    40c0:	e1a0a001 	mov	r10, r1
    40c4:	c3a00000 	movgt	r0, #0
    40c8:	ca00006b 	bgt	427c <quorem+0x1d4>
    40cc:	e2455001 	sub	r5, r5, #1
    40d0:	e2814014 	add	r4, r1, #20
    40d4:	e7941105 	ldr	r1, [r4, r5, lsl #2]
    40d8:	e2898014 	add	r8, r9, #20
    40dc:	e2811001 	add	r1, r1, #1
    40e0:	e7980105 	ldr	r0, [r8, r5, lsl #2]
    40e4:	eb00163a 	bl	99d4 <__aeabi_uidiv>
    40e8:	e1a02105 	lsl	r2, r5, #2
    40ec:	e0883002 	add	r3, r8, r2
    40f0:	e2507000 	subs	r7, r0, #0
    40f4:	e58d2000 	str	r2, [sp]
    40f8:	e0846002 	add	r6, r4, r2
    40fc:	e58d3004 	str	r3, [sp, #4]
    4100:	0a000030 	beq	41c8 <quorem+0x120>
    4104:	e3a0c000 	mov	r12, #0
    4108:	e1a0000c 	mov	r0, r12
    410c:	e1a02004 	mov	r2, r4
    4110:	e1a03008 	mov	r3, r8
    4114:	e492e004 	ldr	lr, [r2], #4
    4118:	e1a0b80e 	lsl	r11, lr, #16
    411c:	e1a0182e 	lsr	r1, lr, #16
    4120:	e1a0b82b 	lsr	r11, r11, #16
    4124:	e02bcb97 	mla	r11, r7, r11, r12
    4128:	e0010197 	mul	r1, r7, r1
    412c:	e593e000 	ldr	lr, [r3]
    4130:	e081182b 	add	r1, r1, r11, lsr #16
    4134:	e1a0b80b 	lsl	r11, r11, #16
    4138:	e040082b 	sub	r0, r0, r11, lsr #16
    413c:	e1a0c80e 	lsl	r12, lr, #16
    4140:	e1a0b801 	lsl	r11, r1, #16
    4144:	e080c82c 	add	r12, r0, r12, lsr #16
    4148:	e1a0082b 	lsr	r0, r11, #16
    414c:	e060082e 	rsb	r0, r0, lr, lsr #16
    4150:	e1a0b80c 	lsl	r11, r12, #16
    4154:	e080084c 	add	r0, r0, r12, asr #16
    4158:	e1a0c82b 	lsr	r12, r11, #16
    415c:	e18cc800 	orr	r12, r12, r0, lsl #16
    4160:	e1560002 	cmp	r6, r2
    4164:	e483c004 	str	r12, [r3], #4
    4168:	e1a00840 	asr	r0, r0, #16
    416c:	e1a0c821 	lsr	r12, r1, #16
    4170:	2affffe7 	bcs	4114 <quorem+0x6c>
    4174:	e59d2000 	ldr	r2, [sp]
    4178:	e7983002 	ldr	r3, [r8, r2]
    417c:	e3530000 	cmp	r3, #0
    4180:	1a000010 	bne	41c8 <quorem+0x120>
    4184:	e59d2004 	ldr	r2, [sp, #4]
    4188:	e2423004 	sub	r3, r2, #4
    418c:	e1580003 	cmp	r8, r3
    4190:	2a00000b 	bcs	41c4 <quorem+0x11c>
    4194:	e5123004 	ldr	r3, [r2, #-4]
    4198:	e3530000 	cmp	r3, #0
    419c:	1a000008 	bne	41c4 <quorem+0x11c>
    41a0:	e2423008 	sub	r3, r2, #8
    41a4:	ea000003 	b	41b8 <quorem+0x110>
    41a8:	e5932000 	ldr	r2, [r3]
    41ac:	e3520000 	cmp	r2, #0
    41b0:	e2433004 	sub	r3, r3, #4
    41b4:	1a000002 	bne	41c4 <quorem+0x11c>
    41b8:	e1580003 	cmp	r8, r3
    41bc:	e2455001 	sub	r5, r5, #1
    41c0:	3afffff8 	bcc	41a8 <quorem+0x100>
    41c4:	e5895010 	str	r5, [r9, #16]
    41c8:	e1a0100a 	mov	r1, r10
    41cc:	e1a00009 	mov	r0, r9
    41d0:	eb000bce 	bl	7110 <__mcmp>
    41d4:	e3500000 	cmp	r0, #0
    41d8:	ba000026 	blt	4278 <quorem+0x1d0>
    41dc:	e2877001 	add	r7, r7, #1
    41e0:	e1a03008 	mov	r3, r8
    41e4:	e3a02000 	mov	r2, #0
    41e8:	e494c004 	ldr	r12, [r4], #4
    41ec:	e5930000 	ldr	r0, [r3]
    41f0:	e1a0180c 	lsl	r1, r12, #16
    41f4:	e0422821 	sub	r2, r2, r1, lsr #16
    41f8:	e1a01800 	lsl	r1, r0, #16
    41fc:	e0821821 	add	r1, r2, r1, lsr #16
    4200:	e1a0c82c 	lsr	r12, r12, #16
    4204:	e06c2820 	rsb	r2, r12, r0, lsr #16
    4208:	e1a0a801 	lsl	r10, r1, #16
    420c:	e0822841 	add	r2, r2, r1, asr #16
    4210:	e1a0182a 	lsr	r1, r10, #16
    4214:	e1811802 	orr	r1, r1, r2, lsl #16
    4218:	e1560004 	cmp	r6, r4
    421c:	e4831004 	str	r1, [r3], #4
    4220:	e1a02842 	asr	r2, r2, #16
    4224:	2affffef 	bcs	41e8 <quorem+0x140>
    4228:	e7983105 	ldr	r3, [r8, r5, lsl #2]
    422c:	e3530000 	cmp	r3, #0
    4230:	e0883105 	add	r3, r8, r5, lsl #2
    4234:	1a00000f 	bne	4278 <quorem+0x1d0>
    4238:	e2432004 	sub	r2, r3, #4
    423c:	e1580002 	cmp	r8, r2
    4240:	2a00000b 	bcs	4274 <quorem+0x1cc>
    4244:	e5132004 	ldr	r2, [r3, #-4]
    4248:	e3520000 	cmp	r2, #0
    424c:	1a000008 	bne	4274 <quorem+0x1cc>
    4250:	e2433008 	sub	r3, r3, #8
    4254:	ea000003 	b	4268 <quorem+0x1c0>
    4258:	e5932000 	ldr	r2, [r3]
    425c:	e3520000 	cmp	r2, #0
    4260:	e2433004 	sub	r3, r3, #4
    4264:	1a000002 	bne	4274 <quorem+0x1cc>
    4268:	e1580003 	cmp	r8, r3
    426c:	e2455001 	sub	r5, r5, #1
    4270:	3afffff8 	bcc	4258 <quorem+0x1b0>
    4274:	e5895010 	str	r5, [r9, #16]
    4278:	e1a00007 	mov	r0, r7
    427c:	e28dd00c 	add	sp, sp, #12
    4280:	e8bd4ff0 	pop	{r4, r5, r6, r7, r8, r9, r10, r11, lr}
    4284:	e12fff1e 	bx	lr

00004288 <_dtoa_r>:
    4288:	e92d4ff0 	push	{r4, r5, r6, r7, r8, r9, r10, r11, lr}
    428c:	e5901040 	ldr	r1, [r0, #64]	; 0x40
    4290:	e24dd074 	sub	sp, sp, #116	; 0x74
    4294:	e3510000 	cmp	r1, #0
    4298:	e1a04000 	mov	r4, r0
    429c:	e1a0a002 	mov	r10, r2
    42a0:	e1a0b003 	mov	r11, r3
    42a4:	e59d50a4 	ldr	r5, [sp, #164]	; 0xa4
    42a8:	0a000007 	beq	42cc <_dtoa_r+0x44>
    42ac:	e5903044 	ldr	r3, [r0, #68]	; 0x44
    42b0:	e3a02001 	mov	r2, #1
    42b4:	e1a02312 	lsl	r2, r2, r3
    42b8:	e5813004 	str	r3, [r1, #4]
    42bc:	e5812008 	str	r2, [r1, #8]
    42c0:	eb0009d7 	bl	6a24 <_Bfree>
    42c4:	e3a03000 	mov	r3, #0
    42c8:	e5843040 	str	r3, [r4, #64]	; 0x40
    42cc:	e35b0000 	cmp	r11, #0
    42d0:	b3a03001 	movlt	r3, #1
    42d4:	a3a03000 	movge	r3, #0
    42d8:	b5853000 	strlt	r3, [r5]
    42dc:	a5853000 	strge	r3, [r5]
    42e0:	e59f3508 	ldr	r3, [pc, #1288]	; 47f0 <_dtoa_r+0x568>
    42e4:	b3cb9102 	biclt	r9, r11, #-2147483648	; 0x80000000
    42e8:	a1a0900b 	movge	r9, r11
    42ec:	e1a02003 	mov	r2, r3
    42f0:	e0093003 	and	r3, r9, r3
    42f4:	b1a0b009 	movlt	r11, r9
    42f8:	e1530002 	cmp	r3, r2
    42fc:	0a000013 	beq	4350 <_dtoa_r+0xc8>
    4300:	e1a0000a 	mov	r0, r10
    4304:	e1a0100b 	mov	r1, r11
    4308:	e3a02000 	mov	r2, #0
    430c:	e3a03000 	mov	r3, #0
    4310:	eb001856 	bl	a470 <__aeabi_dcmpeq>
    4314:	e2508000 	subs	r8, r0, #0
    4318:	0a00001e 	beq	4398 <_dtoa_r+0x110>
    431c:	e59dc0a8 	ldr	r12, [sp, #168]	; 0xa8
    4320:	e35c0000 	cmp	r12, #0
    4324:	e59dc0a0 	ldr	r12, [sp, #160]	; 0xa0
    4328:	e3a03001 	mov	r3, #1
    432c:	e58c3000 	str	r3, [r12]
    4330:	0a00009c 	beq	45a8 <_dtoa_r+0x320>
    4334:	e59f04b8 	ldr	r0, [pc, #1208]	; 47f4 <_dtoa_r+0x56c>
    4338:	e59dc0a8 	ldr	r12, [sp, #168]	; 0xa8
    433c:	e58c0000 	str	r0, [r12]
    4340:	e2400001 	sub	r0, r0, #1
    4344:	e28dd074 	add	sp, sp, #116	; 0x74
    4348:	e8bd4ff0 	pop	{r4, r5, r6, r7, r8, r9, r10, r11, lr}
    434c:	e12fff1e 	bx	lr
    4350:	e59f34a0 	ldr	r3, [pc, #1184]	; 47f8 <_dtoa_r+0x570>
    4354:	e59dc0a0 	ldr	r12, [sp, #160]	; 0xa0
    4358:	e35a0000 	cmp	r10, #0
    435c:	e58c3000 	str	r3, [r12]
    4360:	0a00007e 	beq	4560 <_dtoa_r+0x2d8>
    4364:	e59f0490 	ldr	r0, [pc, #1168]	; 47fc <_dtoa_r+0x574>
    4368:	e59dc0a8 	ldr	r12, [sp, #168]	; 0xa8
    436c:	e35c0000 	cmp	r12, #0
    4370:	0afffff3 	beq	4344 <_dtoa_r+0xbc>
    4374:	e5d03003 	ldrb	r3, [r0, #3]
    4378:	e59dc0a8 	ldr	r12, [sp, #168]	; 0xa8
    437c:	e3530000 	cmp	r3, #0
    4380:	12803008 	addne	r3, r0, #8
    4384:	02803003 	addeq	r3, r0, #3
    4388:	e58c3000 	str	r3, [r12]
    438c:	e28dd074 	add	sp, sp, #116	; 0x74
    4390:	e8bd4ff0 	pop	{r4, r5, r6, r7, r8, r9, r10, r11, lr}
    4394:	e12fff1e 	bx	lr
    4398:	e28d206c 	add	r2, sp, #108	; 0x6c
    439c:	e28d3068 	add	r3, sp, #104	; 0x68
    43a0:	e88d000c 	stm	sp, {r2, r3}
    43a4:	e1a00004 	mov	r0, r4
    43a8:	e1a0200a 	mov	r2, r10
    43ac:	e1a0300b 	mov	r3, r11
    43b0:	eb000c0d 	bl	73ec <__d2b>
    43b4:	e1b05a29 	lsrs	r5, r9, #20
    43b8:	e58d0030 	str	r0, [sp, #48]	; 0x30
    43bc:	1a00006f 	bne	4580 <_dtoa_r+0x2f8>
    43c0:	e59d8068 	ldr	r8, [sp, #104]	; 0x68
    43c4:	e59d506c 	ldr	r5, [sp, #108]	; 0x6c
    43c8:	e3e03e41 	mvn	r3, #1040	; 0x410
    43cc:	e0885005 	add	r5, r8, r5
    43d0:	e1550003 	cmp	r5, r3
    43d4:	a2850e41 	addge	r0, r5, #1040	; 0x410
    43d8:	a2800002 	addge	r0, r0, #2
    43dc:	a1a0003a 	lsrge	r0, r10, r0
    43e0:	b59f0418 	ldrlt	r0, [pc, #1048]	; 4800 <_dtoa_r+0x578>
    43e4:	a283301f 	addge	r3, r3, #31
    43e8:	a0653003 	rsbge	r3, r5, r3
    43ec:	b0650000 	rsblt	r0, r5, r0
    43f0:	a1800319 	orrge	r0, r0, r9, lsl r3
    43f4:	b1a0001a 	lsllt	r0, r10, r0
    43f8:	eb001682 	bl	9e08 <__aeabi_ui2d>
    43fc:	e3a0c001 	mov	r12, #1
    4400:	e58dc05c 	str	r12, [sp, #92]	; 0x5c
    4404:	e2455001 	sub	r5, r5, #1
    4408:	e241161f 	sub	r1, r1, #32505856	; 0x1f00000
    440c:	e3a02000 	mov	r2, #0
    4410:	e59f33ec 	ldr	r3, [pc, #1004]	; 4804 <_dtoa_r+0x57c>
    4414:	eb0015b6 	bl	9af4 <__aeabi_dsub>
    4418:	e28f3fee 	add	r3, pc, #952	; 0x3b8
    441c:	e893000c 	ldm	r3, {r2, r3}
    4420:	eb0016b8 	bl	9f08 <__aeabi_dmul>
    4424:	e28f3fed 	add	r3, pc, #948	; 0x3b4
    4428:	e893000c 	ldm	r3, {r2, r3}
    442c:	eb0015b1 	bl	9af8 <__adddf3>
    4430:	e1a06000 	mov	r6, r0
    4434:	e1a00005 	mov	r0, r5
    4438:	e1a07001 	mov	r7, r1
    443c:	eb00167a 	bl	9e2c <__aeabi_i2d>
    4440:	e28f3e3a 	add	r3, pc, #928	; 0x3a0
    4444:	e893000c 	ldm	r3, {r2, r3}
    4448:	eb0016ae 	bl	9f08 <__aeabi_dmul>
    444c:	e1a02000 	mov	r2, r0
    4450:	e1a03001 	mov	r3, r1
    4454:	e1a00006 	mov	r0, r6
    4458:	e1a01007 	mov	r1, r7
    445c:	eb0015a5 	bl	9af8 <__adddf3>
    4460:	e1a06000 	mov	r6, r0
    4464:	e1a07001 	mov	r7, r1
    4468:	eb00181e 	bl	a4e8 <__aeabi_d2iz>
    446c:	e1a01007 	mov	r1, r7
    4470:	e58d0018 	str	r0, [sp, #24]
    4474:	e3a02000 	mov	r2, #0
    4478:	e1a00006 	mov	r0, r6
    447c:	e3a03000 	mov	r3, #0
    4480:	eb001800 	bl	a488 <__aeabi_dcmplt>
    4484:	e3500000 	cmp	r0, #0
    4488:	1a00019a 	bne	4af8 <_dtoa_r+0x870>
    448c:	e59dc018 	ldr	r12, [sp, #24]
    4490:	e35c0016 	cmp	r12, #22
    4494:	83a0c001 	movhi	r12, #1
    4498:	858dc044 	strhi	r12, [sp, #68]	; 0x44
    449c:	8a00000c 	bhi	44d4 <_dtoa_r+0x24c>
    44a0:	e59f3370 	ldr	r3, [pc, #880]	; 4818 <_dtoa_r+0x590>
    44a4:	e083318c 	add	r3, r3, r12, lsl #3
    44a8:	e8930003 	ldm	r3, {r0, r1}
    44ac:	e1a0200a 	mov	r2, r10
    44b0:	e1a0300b 	mov	r3, r11
    44b4:	eb001805 	bl	a4d0 <__aeabi_dcmpgt>
    44b8:	e3500000 	cmp	r0, #0
    44bc:	159dc018 	ldrne	r12, [sp, #24]
    44c0:	124cc001 	subne	r12, r12, #1
    44c4:	158dc018 	strne	r12, [sp, #24]
    44c8:	13a0c000 	movne	r12, #0
    44cc:	158dc044 	strne	r12, [sp, #68]	; 0x44
    44d0:	058d0044 	streq	r0, [sp, #68]	; 0x44
    44d4:	e0655008 	rsb	r5, r5, r8
    44d8:	e2555001 	subs	r5, r5, #1
    44dc:	4265c000 	rsbmi	r12, r5, #0
    44e0:	458dc02c 	strmi	r12, [sp, #44]	; 0x2c
    44e4:	53a0c000 	movpl	r12, #0
    44e8:	43a0c000 	movmi	r12, #0
    44ec:	558dc02c 	strpl	r12, [sp, #44]	; 0x2c
    44f0:	e58d5024 	str	r5, [sp, #36]	; 0x24
    44f4:	458dc024 	strmi	r12, [sp, #36]	; 0x24
    44f8:	e59dc018 	ldr	r12, [sp, #24]
    44fc:	e35c0000 	cmp	r12, #0
    4500:	ba000186 	blt	4b20 <_dtoa_r+0x898>
    4504:	e59d1024 	ldr	r1, [sp, #36]	; 0x24
    4508:	e58dc040 	str	r12, [sp, #64]	; 0x40
    450c:	e081100c 	add	r1, r1, r12
    4510:	e3a0c000 	mov	r12, #0
    4514:	e58d1024 	str	r1, [sp, #36]	; 0x24
    4518:	e58dc034 	str	r12, [sp, #52]	; 0x34
    451c:	e59dc098 	ldr	r12, [sp, #152]	; 0x98
    4520:	e35c0009 	cmp	r12, #9
    4524:	8a000021 	bhi	45b0 <_dtoa_r+0x328>
    4528:	e35c0005 	cmp	r12, #5
    452c:	c24cc004 	subgt	r12, r12, #4
    4530:	c58dc098 	strgt	r12, [sp, #152]	; 0x98
    4534:	e59dc098 	ldr	r12, [sp, #152]	; 0x98
    4538:	e24c3002 	sub	r3, r12, #2
    453c:	c3a05000 	movgt	r5, #0
    4540:	d3a05001 	movle	r5, #1
    4544:	e3530003 	cmp	r3, #3
    4548:	979ff103 	ldrls	pc, [pc, r3, lsl #2]
    454c:	ea000019 	b	45b8 <_dtoa_r+0x330>
    4550:	00004bc8 	.word	0x00004bc8
    4554:	00004f20 	.word	0x00004f20
    4558:	00004f5c 	.word	0x00004f5c
    455c:	000055b4 	.word	0x000055b4
    4560:	e3c904ff 	bic	r0, r9, #-16777216	; 0xff000000
    4564:	e3c0060f 	bic	r0, r0, #15728640	; 0xf00000
    4568:	e59f2298 	ldr	r2, [pc, #664]	; 4808 <_dtoa_r+0x580>
    456c:	e59f3288 	ldr	r3, [pc, #648]	; 47fc <_dtoa_r+0x574>
    4570:	e3500000 	cmp	r0, #0
    4574:	01a00002 	moveq	r0, r2
    4578:	11a00003 	movne	r0, r3
    457c:	eaffff79 	b	4368 <_dtoa_r+0xe0>
    4580:	e3cb34ff 	bic	r3, r11, #-16777216	; 0xff000000
    4584:	e3c3360f 	bic	r3, r3, #15728640	; 0xf00000
    4588:	e2455fff 	sub	r5, r5, #1020	; 0x3fc
    458c:	e38335ff 	orr	r3, r3, #1069547520	; 0x3fc00000
    4590:	e58d805c 	str	r8, [sp, #92]	; 0x5c
    4594:	e1a0000a 	mov	r0, r10
    4598:	e2455003 	sub	r5, r5, #3
    459c:	e3831603 	orr	r1, r3, #3145728	; 0x300000
    45a0:	e59d8068 	ldr	r8, [sp, #104]	; 0x68
    45a4:	eaffff98 	b	440c <_dtoa_r+0x184>
    45a8:	e59f025c 	ldr	r0, [pc, #604]	; 480c <_dtoa_r+0x584>
    45ac:	eaffff64 	b	4344 <_dtoa_r+0xbc>
    45b0:	e3a0c000 	mov	r12, #0
    45b4:	e58dc098 	str	r12, [sp, #152]	; 0x98
    45b8:	e3a05000 	mov	r5, #0
    45bc:	e5845044 	str	r5, [r4, #68]	; 0x44
    45c0:	e1a01005 	mov	r1, r5
    45c4:	e1a00004 	mov	r0, r4
    45c8:	eb0008f2 	bl	6998 <_Balloc>
    45cc:	e3e0c000 	mvn	r12, #0
    45d0:	e58dc03c 	str	r12, [sp, #60]	; 0x3c
    45d4:	e58dc028 	str	r12, [sp, #40]	; 0x28
    45d8:	e3a0c001 	mov	r12, #1
    45dc:	e58d0020 	str	r0, [sp, #32]
    45e0:	e58d509c 	str	r5, [sp, #156]	; 0x9c
    45e4:	e5840040 	str	r0, [r4, #64]	; 0x40
    45e8:	e58dc038 	str	r12, [sp, #56]	; 0x38
    45ec:	e59d306c 	ldr	r3, [sp, #108]	; 0x6c
    45f0:	e3530000 	cmp	r3, #0
    45f4:	ba00009b 	blt	4868 <_dtoa_r+0x5e0>
    45f8:	e59dc018 	ldr	r12, [sp, #24]
    45fc:	e35c000e 	cmp	r12, #14
    4600:	ca000098 	bgt	4868 <_dtoa_r+0x5e0>
    4604:	e59d109c 	ldr	r1, [sp, #156]	; 0x9c
    4608:	e59dc028 	ldr	r12, [sp, #40]	; 0x28
    460c:	e1a02fa1 	lsr	r2, r1, #31
    4610:	e35c0000 	cmp	r12, #0
    4614:	c3a02000 	movgt	r2, #0
    4618:	d2022001 	andle	r2, r2, #1
    461c:	e59f31f4 	ldr	r3, [pc, #500]	; 4818 <_dtoa_r+0x590>
    4620:	e59dc018 	ldr	r12, [sp, #24]
    4624:	e083318c 	add	r3, r3, r12, lsl #3
    4628:	e3520000 	cmp	r2, #0
    462c:	e8930006 	ldm	r3, {r1, r2}
    4630:	e58d1010 	str	r1, [sp, #16]
    4634:	e58d2014 	str	r2, [sp, #20]
    4638:	1a000341 	bne	5344 <_dtoa_r+0x10bc>
    463c:	e28d3010 	add	r3, sp, #16
    4640:	e893000c 	ldm	r3, {r2, r3}
    4644:	e1a0000a 	mov	r0, r10
    4648:	e1a0100b 	mov	r1, r11
    464c:	eb0016d1 	bl	a198 <__aeabi_ddiv>
    4650:	eb0017a4 	bl	a4e8 <__aeabi_d2iz>
    4654:	e1a08000 	mov	r8, r0
    4658:	eb0015f3 	bl	9e2c <__aeabi_i2d>
    465c:	e28d3010 	add	r3, sp, #16
    4660:	e893000c 	ldm	r3, {r2, r3}
    4664:	eb001627 	bl	9f08 <__aeabi_dmul>
    4668:	e1a03001 	mov	r3, r1
    466c:	e1a02000 	mov	r2, r0
    4670:	e1a0100b 	mov	r1, r11
    4674:	e1a0000a 	mov	r0, r10
    4678:	eb00151d 	bl	9af4 <__aeabi_dsub>
    467c:	e59dc028 	ldr	r12, [sp, #40]	; 0x28
    4680:	e35c0001 	cmp	r12, #1
    4684:	e59dc020 	ldr	r12, [sp, #32]
    4688:	e28cc001 	add	r12, r12, #1
    468c:	e58dc058 	str	r12, [sp, #88]	; 0x58
    4690:	e59dc020 	ldr	r12, [sp, #32]
    4694:	e2883030 	add	r3, r8, #48	; 0x30
    4698:	e1a06000 	mov	r6, r0
    469c:	e1a07001 	mov	r7, r1
    46a0:	e5cc3000 	strb	r3, [r12]
    46a4:	e59d5058 	ldr	r5, [sp, #88]	; 0x58
    46a8:	0a000035 	beq	4784 <_dtoa_r+0x4fc>
    46ac:	e3a02000 	mov	r2, #0
    46b0:	e59f3168 	ldr	r3, [pc, #360]	; 4820 <_dtoa_r+0x598>
    46b4:	eb001613 	bl	9f08 <__aeabi_dmul>
    46b8:	e3a02000 	mov	r2, #0
    46bc:	e3a03000 	mov	r3, #0
    46c0:	e1a06000 	mov	r6, r0
    46c4:	e1a07001 	mov	r7, r1
    46c8:	eb001768 	bl	a470 <__aeabi_dcmpeq>
    46cc:	e3500000 	cmp	r0, #0
    46d0:	1a00049a 	bne	5940 <_dtoa_r+0x16b8>
    46d4:	e59dc020 	ldr	r12, [sp, #32]
    46d8:	e59d1028 	ldr	r1, [sp, #40]	; 0x28
    46dc:	e58d401c 	str	r4, [sp, #28]
    46e0:	e08c9001 	add	r9, r12, r1
    46e4:	e28ca002 	add	r10, r12, #2
    46e8:	e28d5010 	add	r5, sp, #16
    46ec:	e8950030 	ldm	r5, {r4, r5}
    46f0:	ea000008 	b	4718 <_dtoa_r+0x490>
    46f4:	eb001603 	bl	9f08 <__aeabi_dmul>
    46f8:	e3a02000 	mov	r2, #0
    46fc:	e3a03000 	mov	r3, #0
    4700:	e1a06000 	mov	r6, r0
    4704:	e1a07001 	mov	r7, r1
    4708:	eb001758 	bl	a470 <__aeabi_dcmpeq>
    470c:	e3500000 	cmp	r0, #0
    4710:	e28aa001 	add	r10, r10, #1
    4714:	1a000410 	bne	575c <_dtoa_r+0x14d4>
    4718:	e1a02004 	mov	r2, r4
    471c:	e1a03005 	mov	r3, r5
    4720:	e1a00006 	mov	r0, r6
    4724:	e1a01007 	mov	r1, r7
    4728:	eb00169a 	bl	a198 <__aeabi_ddiv>
    472c:	eb00176d 	bl	a4e8 <__aeabi_d2iz>
    4730:	e1a08000 	mov	r8, r0
    4734:	eb0015bc 	bl	9e2c <__aeabi_i2d>
    4738:	e1a02004 	mov	r2, r4
    473c:	e1a03005 	mov	r3, r5
    4740:	eb0015f0 	bl	9f08 <__aeabi_dmul>
    4744:	e1a02000 	mov	r2, r0
    4748:	e1a03001 	mov	r3, r1
    474c:	e1a00006 	mov	r0, r6
    4750:	e1a01007 	mov	r1, r7
    4754:	eb0014e6 	bl	9af4 <__aeabi_dsub>
    4758:	e288c030 	add	r12, r8, #48	; 0x30
    475c:	e15a0009 	cmp	r10, r9
    4760:	e1a06000 	mov	r6, r0
    4764:	e1a07001 	mov	r7, r1
    4768:	e3a02000 	mov	r2, #0
    476c:	e59f30ac 	ldr	r3, [pc, #172]	; 4820 <_dtoa_r+0x598>
    4770:	e54ac001 	strb	r12, [r10, #-1]
    4774:	e1a0b00a 	mov	r11, r10
    4778:	1affffdd 	bne	46f4 <_dtoa_r+0x46c>
    477c:	e59d401c 	ldr	r4, [sp, #28]
    4780:	e1a0500a 	mov	r5, r10
    4784:	e1a02006 	mov	r2, r6
    4788:	e1a03007 	mov	r3, r7
    478c:	e1a00006 	mov	r0, r6
    4790:	e1a01007 	mov	r1, r7
    4794:	eb0014d7 	bl	9af8 <__adddf3>
    4798:	e1a06000 	mov	r6, r0
    479c:	e1a07001 	mov	r7, r1
    47a0:	e1a02006 	mov	r2, r6
    47a4:	e28d1010 	add	r1, sp, #16
    47a8:	e8910003 	ldm	r1, {r0, r1}
    47ac:	e1a03007 	mov	r3, r7
    47b0:	eb001734 	bl	a488 <__aeabi_dcmplt>
    47b4:	e3500000 	cmp	r0, #0
    47b8:	0a000429 	beq	5864 <_dtoa_r+0x15dc>
    47bc:	e59dc018 	ldr	r12, [sp, #24]
    47c0:	e58dc060 	str	r12, [sp, #96]	; 0x60
    47c4:	e59d9020 	ldr	r9, [sp, #32]
    47c8:	e5558001 	ldrb	r8, [r5, #-1]
    47cc:	e59d1058 	ldr	r1, [sp, #88]	; 0x58
    47d0:	ea000019 	b	483c <_dtoa_r+0x5b4>
    47d4:	e1a00000 	nop			; (mov r0, r0)
    47d8:	636f4361 	.word	0x636f4361
    47dc:	3fd287a7 	.word	0x3fd287a7
    47e0:	8b60c8b3 	.word	0x8b60c8b3
    47e4:	3fc68a28 	.word	0x3fc68a28
    47e8:	509f79fb 	.word	0x509f79fb
    47ec:	3fd34413 	.word	0x3fd34413
    47f0:	7ff00000 	.word	0x7ff00000
    47f4:	0000b86d 	.word	0x0000b86d
    47f8:	0000270f 	.word	0x0000270f
    47fc:	0000b980 	.word	0x0000b980
    4800:	fffffbee 	.word	0xfffffbee
    4804:	3ff80000 	.word	0x3ff80000
    4808:	0000b974 	.word	0x0000b974
    480c:	0000b86c 	.word	0x0000b86c
    4810:	3ff00000 	.word	0x3ff00000
    4814:	0000ba90 	.word	0x0000ba90
    4818:	0000b9a0 	.word	0x0000b9a0
    481c:	40140000 	.word	0x40140000
    4820:	40240000 	.word	0x40240000
    4824:	401c0000 	.word	0x401c0000
    4828:	3fe00000 	.word	0x3fe00000
    482c:	e1550001 	cmp	r5, r1
    4830:	0a000392 	beq	5680 <_dtoa_r+0x13f8>
    4834:	e5558002 	ldrb	r8, [r5, #-2]
    4838:	e1a05003 	mov	r5, r3
    483c:	e3580039 	cmp	r8, #57	; 0x39
    4840:	e1a02005 	mov	r2, r5
    4844:	e2453001 	sub	r3, r5, #1
    4848:	0afffff7 	beq	482c <_dtoa_r+0x5a4>
    484c:	e59dc060 	ldr	r12, [sp, #96]	; 0x60
    4850:	e2882001 	add	r2, r8, #1
    4854:	e58d5020 	str	r5, [sp, #32]
    4858:	e58dc018 	str	r12, [sp, #24]
    485c:	e20220ff 	and	r2, r2, #255	; 0xff
    4860:	e5c32000 	strb	r2, [r3]
    4864:	ea00008e 	b	4aa4 <_dtoa_r+0x81c>
    4868:	e59dc038 	ldr	r12, [sp, #56]	; 0x38
    486c:	e35c0000 	cmp	r12, #0
    4870:	1a0000b3 	bne	4b44 <_dtoa_r+0x8bc>
    4874:	e59d6034 	ldr	r6, [sp, #52]	; 0x34
    4878:	e59d502c 	ldr	r5, [sp, #44]	; 0x2c
    487c:	e59d8038 	ldr	r8, [sp, #56]	; 0x38
    4880:	e59dc024 	ldr	r12, [sp, #36]	; 0x24
    4884:	e35c0000 	cmp	r12, #0
    4888:	c3550000 	cmpgt	r5, #0
    488c:	da000009 	ble	48b8 <_dtoa_r+0x630>
    4890:	e1a0300c 	mov	r3, r12
    4894:	e59dc02c 	ldr	r12, [sp, #44]	; 0x2c
    4898:	e1530005 	cmp	r3, r5
    489c:	a1a03005 	movge	r3, r5
    48a0:	e063c00c 	rsb	r12, r3, r12
    48a4:	e58dc02c 	str	r12, [sp, #44]	; 0x2c
    48a8:	e59dc024 	ldr	r12, [sp, #36]	; 0x24
    48ac:	e063c00c 	rsb	r12, r3, r12
    48b0:	e58dc024 	str	r12, [sp, #36]	; 0x24
    48b4:	e0635005 	rsb	r5, r3, r5
    48b8:	e59dc034 	ldr	r12, [sp, #52]	; 0x34
    48bc:	e35c0000 	cmp	r12, #0
    48c0:	da000015 	ble	491c <_dtoa_r+0x694>
    48c4:	e59dc038 	ldr	r12, [sp, #56]	; 0x38
    48c8:	e35c0000 	cmp	r12, #0
    48cc:	0a000347 	beq	55f0 <_dtoa_r+0x1368>
    48d0:	e3560000 	cmp	r6, #0
    48d4:	da00000d 	ble	4910 <_dtoa_r+0x688>
    48d8:	e1a01008 	mov	r1, r8
    48dc:	e1a02006 	mov	r2, r6
    48e0:	e1a00004 	mov	r0, r4
    48e4:	eb000985 	bl	6f00 <__pow5mult>
    48e8:	e1a08000 	mov	r8, r0
    48ec:	e1a01008 	mov	r1, r8
    48f0:	e59d2030 	ldr	r2, [sp, #48]	; 0x30
    48f4:	e1a00004 	mov	r0, r4
    48f8:	eb000906 	bl	6d18 <__multiply>
    48fc:	e59d1030 	ldr	r1, [sp, #48]	; 0x30
    4900:	e1a07000 	mov	r7, r0
    4904:	e1a00004 	mov	r0, r4
    4908:	eb000845 	bl	6a24 <_Bfree>
    490c:	e58d7030 	str	r7, [sp, #48]	; 0x30
    4910:	e59dc034 	ldr	r12, [sp, #52]	; 0x34
    4914:	e05c2006 	subs	r2, r12, r6
    4918:	1a000378 	bne	5700 <_dtoa_r+0x1478>
    491c:	e1a00004 	mov	r0, r4
    4920:	e3a01001 	mov	r1, #1
    4924:	eb0008f2 	bl	6cf4 <__i2b>
    4928:	e59dc040 	ldr	r12, [sp, #64]	; 0x40
    492c:	e35c0000 	cmp	r12, #0
    4930:	e1a06000 	mov	r6, r0
    4934:	da000004 	ble	494c <_dtoa_r+0x6c4>
    4938:	e1a01000 	mov	r1, r0
    493c:	e1a0200c 	mov	r2, r12
    4940:	e1a00004 	mov	r0, r4
    4944:	eb00096d 	bl	6f00 <__pow5mult>
    4948:	e1a06000 	mov	r6, r0
    494c:	e59dc098 	ldr	r12, [sp, #152]	; 0x98
    4950:	e35c0001 	cmp	r12, #1
    4954:	da00028a 	ble	5384 <_dtoa_r+0x10fc>
    4958:	e3a07000 	mov	r7, #0
    495c:	e59dc040 	ldr	r12, [sp, #64]	; 0x40
    4960:	e35c0000 	cmp	r12, #0
    4964:	03a00001 	moveq	r0, #1
    4968:	1a000251 	bne	52b4 <_dtoa_r+0x102c>
    496c:	e59dc024 	ldr	r12, [sp, #36]	; 0x24
    4970:	e080300c 	add	r3, r0, r12
    4974:	e213301f 	ands	r3, r3, #31
    4978:	0a0001a0 	beq	5000 <_dtoa_r+0xd78>
    497c:	e2632020 	rsb	r2, r3, #32
    4980:	e3520004 	cmp	r2, #4
    4984:	da0003f9 	ble	5970 <_dtoa_r+0x16e8>
    4988:	e263301c 	rsb	r3, r3, #28
    498c:	e59dc02c 	ldr	r12, [sp, #44]	; 0x2c
    4990:	e08cc003 	add	r12, r12, r3
    4994:	e58dc02c 	str	r12, [sp, #44]	; 0x2c
    4998:	e59dc024 	ldr	r12, [sp, #36]	; 0x24
    499c:	e08cc003 	add	r12, r12, r3
    49a0:	e58dc024 	str	r12, [sp, #36]	; 0x24
    49a4:	e0855003 	add	r5, r5, r3
    49a8:	e59dc02c 	ldr	r12, [sp, #44]	; 0x2c
    49ac:	e35c0000 	cmp	r12, #0
    49b0:	da000004 	ble	49c8 <_dtoa_r+0x740>
    49b4:	e59d1030 	ldr	r1, [sp, #48]	; 0x30
    49b8:	e1a0200c 	mov	r2, r12
    49bc:	e1a00004 	mov	r0, r4
    49c0:	eb00098f 	bl	7004 <__lshift>
    49c4:	e58d0030 	str	r0, [sp, #48]	; 0x30
    49c8:	e59dc024 	ldr	r12, [sp, #36]	; 0x24
    49cc:	e35c0000 	cmp	r12, #0
    49d0:	da000004 	ble	49e8 <_dtoa_r+0x760>
    49d4:	e1a01006 	mov	r1, r6
    49d8:	e1a0200c 	mov	r2, r12
    49dc:	e1a00004 	mov	r0, r4
    49e0:	eb000987 	bl	7004 <__lshift>
    49e4:	e1a06000 	mov	r6, r0
    49e8:	e59dc044 	ldr	r12, [sp, #68]	; 0x44
    49ec:	e35c0000 	cmp	r12, #0
    49f0:	1a000235 	bne	52cc <_dtoa_r+0x1044>
    49f4:	e59dc098 	ldr	r12, [sp, #152]	; 0x98
    49f8:	e59d1028 	ldr	r1, [sp, #40]	; 0x28
    49fc:	e35c0002 	cmp	r12, #2
    4a00:	d3a03000 	movle	r3, #0
    4a04:	c3a03001 	movgt	r3, #1
    4a08:	e3510000 	cmp	r1, #0
    4a0c:	c3a03000 	movgt	r3, #0
    4a10:	e3530000 	cmp	r3, #0
    4a14:	0a00017b 	beq	5008 <_dtoa_r+0xd80>
    4a18:	e59dc028 	ldr	r12, [sp, #40]	; 0x28
    4a1c:	e35c0000 	cmp	r12, #0
    4a20:	1a000170 	bne	4fe8 <_dtoa_r+0xd60>
    4a24:	e1a01006 	mov	r1, r6
    4a28:	e1a0300c 	mov	r3, r12
    4a2c:	e3a02005 	mov	r2, #5
    4a30:	e1a00004 	mov	r0, r4
    4a34:	eb000801 	bl	6a40 <__multadd>
    4a38:	e1a06000 	mov	r6, r0
    4a3c:	e1a01006 	mov	r1, r6
    4a40:	e59d0030 	ldr	r0, [sp, #48]	; 0x30
    4a44:	eb0009b1 	bl	7110 <__mcmp>
    4a48:	e3500000 	cmp	r0, #0
    4a4c:	da000165 	ble	4fe8 <_dtoa_r+0xd60>
    4a50:	e59dc018 	ldr	r12, [sp, #24]
    4a54:	e28cc001 	add	r12, r12, #1
    4a58:	e58dc018 	str	r12, [sp, #24]
    4a5c:	e59dc020 	ldr	r12, [sp, #32]
    4a60:	e3a03031 	mov	r3, #49	; 0x31
    4a64:	e5cc3000 	strb	r3, [r12]
    4a68:	e1a0900c 	mov	r9, r12
    4a6c:	e28cc001 	add	r12, r12, #1
    4a70:	e58dc020 	str	r12, [sp, #32]
    4a74:	e3a05000 	mov	r5, #0
    4a78:	e1a01006 	mov	r1, r6
    4a7c:	e1a00004 	mov	r0, r4
    4a80:	eb0007e7 	bl	6a24 <_Bfree>
    4a84:	e3580000 	cmp	r8, #0
    4a88:	0a000005 	beq	4aa4 <_dtoa_r+0x81c>
    4a8c:	e1550008 	cmp	r5, r8
    4a90:	13550000 	cmpne	r5, #0
    4a94:	1a000198 	bne	50fc <_dtoa_r+0xe74>
    4a98:	e1a01008 	mov	r1, r8
    4a9c:	e1a00004 	mov	r0, r4
    4aa0:	eb0007df 	bl	6a24 <_Bfree>
    4aa4:	e1a00004 	mov	r0, r4
    4aa8:	e59d1030 	ldr	r1, [sp, #48]	; 0x30
    4aac:	eb0007dc 	bl	6a24 <_Bfree>
    4ab0:	e59dc018 	ldr	r12, [sp, #24]
    4ab4:	e28c3001 	add	r3, r12, #1
    4ab8:	e59dc0a8 	ldr	r12, [sp, #168]	; 0xa8
    4abc:	e35c0000 	cmp	r12, #0
    4ac0:	e59dc020 	ldr	r12, [sp, #32]
    4ac4:	e3a02000 	mov	r2, #0
    4ac8:	e5cc2000 	strb	r2, [r12]
    4acc:	e59dc0a0 	ldr	r12, [sp, #160]	; 0xa0
    4ad0:	01a00009 	moveq	r0, r9
    4ad4:	e58c3000 	str	r3, [r12]
    4ad8:	0afffe19 	beq	4344 <_dtoa_r+0xbc>
    4adc:	e59dc020 	ldr	r12, [sp, #32]
    4ae0:	e59d10a8 	ldr	r1, [sp, #168]	; 0xa8
    4ae4:	e1a00009 	mov	r0, r9
    4ae8:	e581c000 	str	r12, [r1]
    4aec:	e28dd074 	add	sp, sp, #116	; 0x74
    4af0:	e8bd4ff0 	pop	{r4, r5, r6, r7, r8, r9, r10, r11, lr}
    4af4:	e12fff1e 	bx	lr
    4af8:	e59d0018 	ldr	r0, [sp, #24]
    4afc:	eb0014ca 	bl	9e2c <__aeabi_i2d>
    4b00:	e1a02006 	mov	r2, r6
    4b04:	e1a03007 	mov	r3, r7
    4b08:	eb001658 	bl	a470 <__aeabi_dcmpeq>
    4b0c:	e3500000 	cmp	r0, #0
    4b10:	059dc018 	ldreq	r12, [sp, #24]
    4b14:	024cc001 	subeq	r12, r12, #1
    4b18:	058dc018 	streq	r12, [sp, #24]
    4b1c:	eafffe5a 	b	448c <_dtoa_r+0x204>
    4b20:	e59dc02c 	ldr	r12, [sp, #44]	; 0x2c
    4b24:	e59d1018 	ldr	r1, [sp, #24]
    4b28:	e061c00c 	rsb	r12, r1, r12
    4b2c:	e58dc02c 	str	r12, [sp, #44]	; 0x2c
    4b30:	e261c000 	rsb	r12, r1, #0
    4b34:	e58dc034 	str	r12, [sp, #52]	; 0x34
    4b38:	e3a0c000 	mov	r12, #0
    4b3c:	e58dc040 	str	r12, [sp, #64]	; 0x40
    4b40:	eafffe75 	b	451c <_dtoa_r+0x294>
    4b44:	e59dc098 	ldr	r12, [sp, #152]	; 0x98
    4b48:	e35c0001 	cmp	r12, #1
    4b4c:	da0002f8 	ble	5734 <_dtoa_r+0x14ac>
    4b50:	e59dc028 	ldr	r12, [sp, #40]	; 0x28
    4b54:	e24c6001 	sub	r6, r12, #1
    4b58:	e59dc034 	ldr	r12, [sp, #52]	; 0x34
    4b5c:	e15c0006 	cmp	r12, r6
    4b60:	b59dc034 	ldrlt	r12, [sp, #52]	; 0x34
    4b64:	b06c3006 	rsblt	r3, r12, r6
    4b68:	b59dc040 	ldrlt	r12, [sp, #64]	; 0x40
    4b6c:	b08cc003 	addlt	r12, r12, r3
    4b70:	a066600c 	rsbge	r6, r6, r12
    4b74:	b58dc040 	strlt	r12, [sp, #64]	; 0x40
    4b78:	e59dc028 	ldr	r12, [sp, #40]	; 0x28
    4b7c:	b58d6034 	strlt	r6, [sp, #52]	; 0x34
    4b80:	b3a06000 	movlt	r6, #0
    4b84:	e35c0000 	cmp	r12, #0
    4b88:	b59d102c 	ldrlt	r1, [sp, #44]	; 0x2c
    4b8c:	a28d3028 	addge	r3, sp, #40	; 0x28
    4b90:	a8930028 	ldmge	r3, {r3, r5}
    4b94:	b06c5001 	rsblt	r5, r12, r1
    4b98:	b3a03000 	movlt	r3, #0
    4b9c:	e59dc02c 	ldr	r12, [sp, #44]	; 0x2c
    4ba0:	e08cc003 	add	r12, r12, r3
    4ba4:	e58dc02c 	str	r12, [sp, #44]	; 0x2c
    4ba8:	e59dc024 	ldr	r12, [sp, #36]	; 0x24
    4bac:	e1a00004 	mov	r0, r4
    4bb0:	e08cc003 	add	r12, r12, r3
    4bb4:	e3a01001 	mov	r1, #1
    4bb8:	e58dc024 	str	r12, [sp, #36]	; 0x24
    4bbc:	eb00084c 	bl	6cf4 <__i2b>
    4bc0:	e1a08000 	mov	r8, r0
    4bc4:	eaffff2d 	b	4880 <_dtoa_r+0x5f8>
    4bc8:	e3a0c000 	mov	r12, #0
    4bcc:	e58dc038 	str	r12, [sp, #56]	; 0x38
    4bd0:	e59d109c 	ldr	r1, [sp, #156]	; 0x9c
    4bd4:	e3510000 	cmp	r1, #0
    4bd8:	da000278 	ble	55c0 <_dtoa_r+0x1338>
    4bdc:	e58d103c 	str	r1, [sp, #60]	; 0x3c
    4be0:	e58d1028 	str	r1, [sp, #40]	; 0x28
    4be4:	e351000e 	cmp	r1, #14
    4be8:	83a05000 	movhi	r5, #0
    4bec:	92055001 	andls	r5, r5, #1
    4bf0:	e1a0c001 	mov	r12, r1
    4bf4:	e3a01000 	mov	r1, #0
    4bf8:	e35c0017 	cmp	r12, #23
    4bfc:	e5841044 	str	r1, [r4, #68]	; 0x44
    4c00:	9a000008 	bls	4c28 <_dtoa_r+0x9a0>
    4c04:	e3a02001 	mov	r2, #1
    4c08:	e3a03004 	mov	r3, #4
    4c0c:	e1a03083 	lsl	r3, r3, #1
    4c10:	e2830014 	add	r0, r3, #20
    4c14:	e150000c 	cmp	r0, r12
    4c18:	e1a01002 	mov	r1, r2
    4c1c:	e2822001 	add	r2, r2, #1
    4c20:	9afffff9 	bls	4c0c <_dtoa_r+0x984>
    4c24:	e5841044 	str	r1, [r4, #68]	; 0x44
    4c28:	e1a00004 	mov	r0, r4
    4c2c:	eb000759 	bl	6998 <_Balloc>
    4c30:	e3550000 	cmp	r5, #0
    4c34:	e58d0020 	str	r0, [sp, #32]
    4c38:	e5840040 	str	r0, [r4, #64]	; 0x40
    4c3c:	0afffe6a 	beq	45ec <_dtoa_r+0x364>
    4c40:	e59dc018 	ldr	r12, [sp, #24]
    4c44:	e35c0000 	cmp	r12, #0
    4c48:	e58da050 	str	r10, [sp, #80]	; 0x50
    4c4c:	e58db054 	str	r11, [sp, #84]	; 0x54
    4c50:	da000131 	ble	511c <_dtoa_r+0xe94>
    4c54:	e51f2444 	ldr	r2, [pc, #-1092]	; 4818 <_dtoa_r+0x590>
    4c58:	e20c300f 	and	r3, r12, #15
    4c5c:	e1a0524c 	asr	r5, r12, #4
    4c60:	e0823183 	add	r3, r2, r3, lsl #3
    4c64:	e3150010 	tst	r5, #16
    4c68:	e89300c0 	ldm	r3, {r6, r7}
    4c6c:	0a00011e 	beq	50ec <_dtoa_r+0xe64>
    4c70:	e51f3464 	ldr	r3, [pc, #-1124]	; 4814 <_dtoa_r+0x58c>
    4c74:	e1a0000a 	mov	r0, r10
    4c78:	e1a0100b 	mov	r1, r11
    4c7c:	e2833020 	add	r3, r3, #32
    4c80:	e893000c 	ldm	r3, {r2, r3}
    4c84:	eb001543 	bl	a198 <__aeabi_ddiv>
    4c88:	e205500f 	and	r5, r5, #15
    4c8c:	e1a0a000 	mov	r10, r0
    4c90:	e1a0b001 	mov	r11, r1
    4c94:	e3a08003 	mov	r8, #3
    4c98:	e3550000 	cmp	r5, #0
    4c9c:	0a00000b 	beq	4cd0 <_dtoa_r+0xa48>
    4ca0:	e51f9494 	ldr	r9, [pc, #-1172]	; 4814 <_dtoa_r+0x58c>
    4ca4:	e1a00006 	mov	r0, r6
    4ca8:	e1a01007 	mov	r1, r7
    4cac:	e3150001 	tst	r5, #1
    4cb0:	1899000c 	ldmne	r9, {r2, r3}
    4cb4:	12888001 	addne	r8, r8, #1
    4cb8:	1b001492 	blne	9f08 <__aeabi_dmul>
    4cbc:	e1b050c5 	asrs	r5, r5, #1
    4cc0:	e2899008 	add	r9, r9, #8
    4cc4:	1afffff8 	bne	4cac <_dtoa_r+0xa24>
    4cc8:	e1a06000 	mov	r6, r0
    4ccc:	e1a07001 	mov	r7, r1
    4cd0:	e1a02006 	mov	r2, r6
    4cd4:	e1a03007 	mov	r3, r7
    4cd8:	e1a0000a 	mov	r0, r10
    4cdc:	e1a0100b 	mov	r1, r11
    4ce0:	eb00152c 	bl	a198 <__aeabi_ddiv>
    4ce4:	e1a06000 	mov	r6, r0
    4ce8:	e1a07001 	mov	r7, r1
    4cec:	e59dc044 	ldr	r12, [sp, #68]	; 0x44
    4cf0:	e35c0000 	cmp	r12, #0
    4cf4:	0a000006 	beq	4d14 <_dtoa_r+0xa8c>
    4cf8:	e1a00006 	mov	r0, r6
    4cfc:	e1a01007 	mov	r1, r7
    4d00:	e3a02000 	mov	r2, #0
    4d04:	e51f34fc 	ldr	r3, [pc, #-1276]	; 4810 <_dtoa_r+0x588>
    4d08:	eb0015de 	bl	a488 <__aeabi_dcmplt>
    4d0c:	e3500000 	cmp	r0, #0
    4d10:	1a00023c 	bne	5608 <_dtoa_r+0x1380>
    4d14:	e1a00008 	mov	r0, r8
    4d18:	eb001443 	bl	9e2c <__aeabi_i2d>
    4d1c:	e1a02006 	mov	r2, r6
    4d20:	e1a03007 	mov	r3, r7
    4d24:	eb001477 	bl	9f08 <__aeabi_dmul>
    4d28:	e3a02000 	mov	r2, #0
    4d2c:	e51f3510 	ldr	r3, [pc, #-1296]	; 4824 <_dtoa_r+0x59c>
    4d30:	eb001370 	bl	9af8 <__adddf3>
    4d34:	e59dc028 	ldr	r12, [sp, #40]	; 0x28
    4d38:	e35c0000 	cmp	r12, #0
    4d3c:	e1a08000 	mov	r8, r0
    4d40:	e241950d 	sub	r9, r1, #54525952	; 0x3400000
    4d44:	0a000093 	beq	4f98 <_dtoa_r+0xd10>
    4d48:	e59dc018 	ldr	r12, [sp, #24]
    4d4c:	e58dc060 	str	r12, [sp, #96]	; 0x60
    4d50:	e59dc028 	ldr	r12, [sp, #40]	; 0x28
    4d54:	e59d1038 	ldr	r1, [sp, #56]	; 0x38
    4d58:	e3510000 	cmp	r1, #0
    4d5c:	0a00010c 	beq	5194 <_dtoa_r+0xf0c>
    4d60:	e51f3550 	ldr	r3, [pc, #-1360]	; 4818 <_dtoa_r+0x590>
    4d64:	e083318c 	add	r3, r3, r12, lsl #3
    4d68:	e913000c 	ldmdb	r3, {r2, r3}
    4d6c:	e3a00000 	mov	r0, #0
    4d70:	e51f1550 	ldr	r1, [pc, #-1360]	; 4828 <_dtoa_r+0x5a0>
    4d74:	e58dc00c 	str	r12, [sp, #12]
    4d78:	eb001506 	bl	a198 <__aeabi_ddiv>
    4d7c:	e1a02008 	mov	r2, r8
    4d80:	e1a03009 	mov	r3, r9
    4d84:	eb00135a 	bl	9af4 <__aeabi_dsub>
    4d88:	e1a0a000 	mov	r10, r0
    4d8c:	e1a0b001 	mov	r11, r1
    4d90:	e1a00006 	mov	r0, r6
    4d94:	e1a01007 	mov	r1, r7
    4d98:	eb0015d2 	bl	a4e8 <__aeabi_d2iz>
    4d9c:	e1a05000 	mov	r5, r0
    4da0:	eb001421 	bl	9e2c <__aeabi_i2d>
    4da4:	e1a02000 	mov	r2, r0
    4da8:	e1a03001 	mov	r3, r1
    4dac:	e1a00006 	mov	r0, r6
    4db0:	e1a01007 	mov	r1, r7
    4db4:	eb00134e 	bl	9af4 <__aeabi_dsub>
    4db8:	e2855030 	add	r5, r5, #48	; 0x30
    4dbc:	e59d2020 	ldr	r2, [sp, #32]
    4dc0:	e1a06000 	mov	r6, r0
    4dc4:	e1a07001 	mov	r7, r1
    4dc8:	e20580ff 	and	r8, r5, #255	; 0xff
    4dcc:	e5c28000 	strb	r8, [r2]
    4dd0:	e1a03007 	mov	r3, r7
    4dd4:	e1a0000a 	mov	r0, r10
    4dd8:	e1a0100b 	mov	r1, r11
    4ddc:	e1a02006 	mov	r2, r6
    4de0:	eb0015ba 	bl	a4d0 <__aeabi_dcmpgt>
    4de4:	e59d3020 	ldr	r3, [sp, #32]
    4de8:	e3500000 	cmp	r0, #0
    4dec:	e2833001 	add	r3, r3, #1
    4df0:	e58d3058 	str	r3, [sp, #88]	; 0x58
    4df4:	e1a05003 	mov	r5, r3
    4df8:	1a0002d6 	bne	5958 <_dtoa_r+0x16d0>
    4dfc:	e1a02006 	mov	r2, r6
    4e00:	e1a03007 	mov	r3, r7
    4e04:	e3a00000 	mov	r0, #0
    4e08:	e51f1600 	ldr	r1, [pc, #-1536]	; 4810 <_dtoa_r+0x588>
    4e0c:	eb001338 	bl	9af4 <__aeabi_dsub>
    4e10:	e1a02000 	mov	r2, r0
    4e14:	e1a03001 	mov	r3, r1
    4e18:	e1a0000a 	mov	r0, r10
    4e1c:	e1a0100b 	mov	r1, r11
    4e20:	eb0015aa 	bl	a4d0 <__aeabi_dcmpgt>
    4e24:	e3500000 	cmp	r0, #0
    4e28:	e59dc00c 	ldr	r12, [sp, #12]
    4e2c:	1a000251 	bne	5778 <_dtoa_r+0x14f0>
    4e30:	e35c0001 	cmp	r12, #1
    4e34:	da0000b5 	ble	5110 <_dtoa_r+0xe88>
    4e38:	e59d1020 	ldr	r1, [sp, #32]
    4e3c:	e081900c 	add	r9, r1, r12
    4e40:	e58d9048 	str	r9, [sp, #72]	; 0x48
    4e44:	e58d4064 	str	r4, [sp, #100]	; 0x64
    4e48:	e1a09005 	mov	r9, r5
    4e4c:	ea000008 	b	4e74 <_dtoa_r+0xbec>
    4e50:	eb001327 	bl	9af4 <__aeabi_dsub>
    4e54:	e1a0200a 	mov	r2, r10
    4e58:	e1a0300b 	mov	r3, r11
    4e5c:	eb001589 	bl	a488 <__aeabi_dcmplt>
    4e60:	e3500000 	cmp	r0, #0
    4e64:	1a000241 	bne	5770 <_dtoa_r+0x14e8>
    4e68:	e59dc048 	ldr	r12, [sp, #72]	; 0x48
    4e6c:	e159000c 	cmp	r9, r12
    4e70:	0a0000a5 	beq	510c <_dtoa_r+0xe84>
    4e74:	e1a0000a 	mov	r0, r10
    4e78:	e1a0100b 	mov	r1, r11
    4e7c:	e3a02000 	mov	r2, #0
    4e80:	e51f3668 	ldr	r3, [pc, #-1640]	; 4820 <_dtoa_r+0x598>
    4e84:	eb00141f 	bl	9f08 <__aeabi_dmul>
    4e88:	e3a02000 	mov	r2, #0
    4e8c:	e51f3674 	ldr	r3, [pc, #-1652]	; 4820 <_dtoa_r+0x598>
    4e90:	e1a0a000 	mov	r10, r0
    4e94:	e1a0b001 	mov	r11, r1
    4e98:	e1a00006 	mov	r0, r6
    4e9c:	e1a01007 	mov	r1, r7
    4ea0:	eb001418 	bl	9f08 <__aeabi_dmul>
    4ea4:	e1a05001 	mov	r5, r1
    4ea8:	e1a04000 	mov	r4, r0
    4eac:	eb00158d 	bl	a4e8 <__aeabi_d2iz>
    4eb0:	e1a08000 	mov	r8, r0
    4eb4:	eb0013dc 	bl	9e2c <__aeabi_i2d>
    4eb8:	e1a02000 	mov	r2, r0
    4ebc:	e1a03001 	mov	r3, r1
    4ec0:	e1a00004 	mov	r0, r4
    4ec4:	e1a01005 	mov	r1, r5
    4ec8:	eb001309 	bl	9af4 <__aeabi_dsub>
    4ecc:	e2888030 	add	r8, r8, #48	; 0x30
    4ed0:	e20880ff 	and	r8, r8, #255	; 0xff
    4ed4:	e1a0200a 	mov	r2, r10
    4ed8:	e1a0300b 	mov	r3, r11
    4edc:	e4c98001 	strb	r8, [r9], #1
    4ee0:	e1a07001 	mov	r7, r1
    4ee4:	e1a06000 	mov	r6, r0
    4ee8:	eb001566 	bl	a488 <__aeabi_dcmplt>
    4eec:	e3500000 	cmp	r0, #0
    4ef0:	e1a02006 	mov	r2, r6
    4ef4:	e1a03007 	mov	r3, r7
    4ef8:	e3a00000 	mov	r0, #0
    4efc:	e51f16f4 	ldr	r1, [pc, #-1780]	; 4810 <_dtoa_r+0x588>
    4f00:	0affffd2 	beq	4e50 <_dtoa_r+0xbc8>
    4f04:	e59dc060 	ldr	r12, [sp, #96]	; 0x60
    4f08:	e1a05009 	mov	r5, r9
    4f0c:	e59d4064 	ldr	r4, [sp, #100]	; 0x64
    4f10:	e59d9020 	ldr	r9, [sp, #32]
    4f14:	e58dc018 	str	r12, [sp, #24]
    4f18:	e58d5020 	str	r5, [sp, #32]
    4f1c:	eafffee0 	b	4aa4 <_dtoa_r+0x81c>
    4f20:	e3a0c000 	mov	r12, #0
    4f24:	e58dc038 	str	r12, [sp, #56]	; 0x38
    4f28:	e59d109c 	ldr	r1, [sp, #156]	; 0x9c
    4f2c:	e59dc018 	ldr	r12, [sp, #24]
    4f30:	e081c00c 	add	r12, r1, r12
    4f34:	e58dc03c 	str	r12, [sp, #60]	; 0x3c
    4f38:	e28cc001 	add	r12, r12, #1
    4f3c:	e35c0000 	cmp	r12, #0
    4f40:	e58dc028 	str	r12, [sp, #40]	; 0x28
    4f44:	da0001a5 	ble	55e0 <_dtoa_r+0x1358>
    4f48:	e59dc028 	ldr	r12, [sp, #40]	; 0x28
    4f4c:	e35c000e 	cmp	r12, #14
    4f50:	83a05000 	movhi	r5, #0
    4f54:	92055001 	andls	r5, r5, #1
    4f58:	eaffff25 	b	4bf4 <_dtoa_r+0x96c>
    4f5c:	e3a0c001 	mov	r12, #1
    4f60:	e58dc038 	str	r12, [sp, #56]	; 0x38
    4f64:	eaffff19 	b	4bd0 <_dtoa_r+0x948>
    4f68:	e1a00008 	mov	r0, r8
    4f6c:	eb0013ae 	bl	9e2c <__aeabi_i2d>
    4f70:	e1a02000 	mov	r2, r0
    4f74:	e1a03001 	mov	r3, r1
    4f78:	e1a00006 	mov	r0, r6
    4f7c:	e1a01007 	mov	r1, r7
    4f80:	eb0013e0 	bl	9f08 <__aeabi_dmul>
    4f84:	e3a02000 	mov	r2, #0
    4f88:	e51f376c 	ldr	r3, [pc, #-1900]	; 4824 <_dtoa_r+0x59c>
    4f8c:	eb0012d9 	bl	9af8 <__adddf3>
    4f90:	e1a08000 	mov	r8, r0
    4f94:	e241950d 	sub	r9, r1, #54525952	; 0x3400000
    4f98:	e1a00006 	mov	r0, r6
    4f9c:	e3a02000 	mov	r2, #0
    4fa0:	e51f378c 	ldr	r3, [pc, #-1932]	; 481c <_dtoa_r+0x594>
    4fa4:	e1a01007 	mov	r1, r7
    4fa8:	eb0012d1 	bl	9af4 <__aeabi_dsub>
    4fac:	e1a02008 	mov	r2, r8
    4fb0:	e1a03009 	mov	r3, r9
    4fb4:	e1a0a000 	mov	r10, r0
    4fb8:	e1a0b001 	mov	r11, r1
    4fbc:	eb001543 	bl	a4d0 <__aeabi_dcmpgt>
    4fc0:	e2506000 	subs	r6, r0, #0
    4fc4:	1a00006f 	bne	5188 <_dtoa_r+0xf00>
    4fc8:	e1a02008 	mov	r2, r8
    4fcc:	e2893102 	add	r3, r9, #-2147483648	; 0x80000000
    4fd0:	e1a0000a 	mov	r0, r10
    4fd4:	e1a0100b 	mov	r1, r11
    4fd8:	eb00152a 	bl	a488 <__aeabi_dcmplt>
    4fdc:	e3500000 	cmp	r0, #0
    4fe0:	0a00004a 	beq	5110 <_dtoa_r+0xe88>
    4fe4:	e1a08006 	mov	r8, r6
    4fe8:	e59dc09c 	ldr	r12, [sp, #156]	; 0x9c
    4fec:	e1e0c00c 	mvn	r12, r12
    4ff0:	e58dc018 	str	r12, [sp, #24]
    4ff4:	e59d9020 	ldr	r9, [sp, #32]
    4ff8:	e3a05000 	mov	r5, #0
    4ffc:	eafffe9d 	b	4a78 <_dtoa_r+0x7f0>
    5000:	e3a0301c 	mov	r3, #28
    5004:	eafffe60 	b	498c <_dtoa_r+0x704>
    5008:	e59dc038 	ldr	r12, [sp, #56]	; 0x38
    500c:	e35c0000 	cmp	r12, #0
    5010:	1a0000ff 	bne	5414 <_dtoa_r+0x118c>
    5014:	e3a05000 	mov	r5, #0
    5018:	e59da028 	ldr	r10, [sp, #40]	; 0x28
    501c:	e59d9030 	ldr	r9, [sp, #48]	; 0x30
    5020:	e59db020 	ldr	r11, [sp, #32]
    5024:	ea000005 	b	5040 <_dtoa_r+0xdb8>
    5028:	e1a01009 	mov	r1, r9
    502c:	e1a00004 	mov	r0, r4
    5030:	e3a0200a 	mov	r2, #10
    5034:	e3a03000 	mov	r3, #0
    5038:	eb000680 	bl	6a40 <__multadd>
    503c:	e1a09000 	mov	r9, r0
    5040:	e1a00009 	mov	r0, r9
    5044:	e1a01006 	mov	r1, r6
    5048:	ebfffc16 	bl	40a8 <quorem>
    504c:	e2800030 	add	r0, r0, #48	; 0x30
    5050:	e7cb0005 	strb	r0, [r11, r5]
    5054:	e2855001 	add	r5, r5, #1
    5058:	e155000a 	cmp	r5, r10
    505c:	bafffff1 	blt	5028 <_dtoa_r+0xda0>
    5060:	e59db020 	ldr	r11, [sp, #32]
    5064:	e59dc028 	ldr	r12, [sp, #40]	; 0x28
    5068:	e58d9030 	str	r9, [sp, #48]	; 0x30
    506c:	e1a07000 	mov	r7, r0
    5070:	e35c0001 	cmp	r12, #1
    5074:	a08bb00c 	addge	r11, r11, r12
    5078:	b28bb001 	addlt	r11, r11, #1
    507c:	e3a05000 	mov	r5, #0
    5080:	e59d1030 	ldr	r1, [sp, #48]	; 0x30
    5084:	e3a02001 	mov	r2, #1
    5088:	e1a00004 	mov	r0, r4
    508c:	eb0007dc 	bl	7004 <__lshift>
    5090:	e1a01006 	mov	r1, r6
    5094:	e58d0030 	str	r0, [sp, #48]	; 0x30
    5098:	eb00081c 	bl	7110 <__mcmp>
    509c:	e3500000 	cmp	r0, #0
    50a0:	da0001d2 	ble	57f0 <_dtoa_r+0x1568>
    50a4:	e59dc020 	ldr	r12, [sp, #32]
    50a8:	e28cc001 	add	r12, r12, #1
    50ac:	e55b3001 	ldrb	r3, [r11, #-1]
    50b0:	e58dc058 	str	r12, [sp, #88]	; 0x58
    50b4:	e59d1058 	ldr	r1, [sp, #88]	; 0x58
    50b8:	ea000003 	b	50cc <_dtoa_r+0xe44>
    50bc:	e15b0001 	cmp	r11, r1
    50c0:	0a000193 	beq	5714 <_dtoa_r+0x148c>
    50c4:	e55b3002 	ldrb	r3, [r11, #-2]
    50c8:	e1a0b002 	mov	r11, r2
    50cc:	e3530039 	cmp	r3, #57	; 0x39
    50d0:	e24b2001 	sub	r2, r11, #1
    50d4:	0afffff8 	beq	50bc <_dtoa_r+0xe34>
    50d8:	e2833001 	add	r3, r3, #1
    50dc:	e59d9020 	ldr	r9, [sp, #32]
    50e0:	e5c23000 	strb	r3, [r2]
    50e4:	e58db020 	str	r11, [sp, #32]
    50e8:	eafffe62 	b	4a78 <_dtoa_r+0x7f0>
    50ec:	e28db050 	add	r11, sp, #80	; 0x50
    50f0:	e89b0c00 	ldm	r11, {r10, r11}
    50f4:	e3a08002 	mov	r8, #2
    50f8:	eafffee6 	b	4c98 <_dtoa_r+0xa10>
    50fc:	e1a01005 	mov	r1, r5
    5100:	e1a00004 	mov	r0, r4
    5104:	eb000646 	bl	6a24 <_Bfree>
    5108:	eafffe62 	b	4a98 <_dtoa_r+0x810>
    510c:	e59d4064 	ldr	r4, [sp, #100]	; 0x64
    5110:	e28db050 	add	r11, sp, #80	; 0x50
    5114:	e89b0c00 	ldm	r11, {r10, r11}
    5118:	eafffd33 	b	45ec <_dtoa_r+0x364>
    511c:	e59dc018 	ldr	r12, [sp, #24]
    5120:	e26c5000 	rsb	r5, r12, #0
    5124:	e3550000 	cmp	r5, #0
    5128:	0a00015c 	beq	56a0 <_dtoa_r+0x1418>
    512c:	e51f391c 	ldr	r3, [pc, #-2332]	; 4818 <_dtoa_r+0x590>
    5130:	e205200f 	and	r2, r5, #15
    5134:	e0833182 	add	r3, r3, r2, lsl #3
    5138:	e893000c 	ldm	r3, {r2, r3}
    513c:	e28d1050 	add	r1, sp, #80	; 0x50
    5140:	e8910003 	ldm	r1, {r0, r1}
    5144:	eb00136f 	bl	9f08 <__aeabi_dmul>
    5148:	e1b05245 	asrs	r5, r5, #4
    514c:	e1a06000 	mov	r6, r0
    5150:	e1a07001 	mov	r7, r1
    5154:	0a0001fd 	beq	5950 <_dtoa_r+0x16c8>
    5158:	e51f994c 	ldr	r9, [pc, #-2380]	; 4814 <_dtoa_r+0x58c>
    515c:	e3a08002 	mov	r8, #2
    5160:	e3150001 	tst	r5, #1
    5164:	1899000c 	ldmne	r9, {r2, r3}
    5168:	12888001 	addne	r8, r8, #1
    516c:	1b001365 	blne	9f08 <__aeabi_dmul>
    5170:	e1b050c5 	asrs	r5, r5, #1
    5174:	e2899008 	add	r9, r9, #8
    5178:	1afffff8 	bne	5160 <_dtoa_r+0xed8>
    517c:	e1a06000 	mov	r6, r0
    5180:	e1a07001 	mov	r7, r1
    5184:	eafffed8 	b	4cec <_dtoa_r+0xa64>
    5188:	e3a06000 	mov	r6, #0
    518c:	e1a08006 	mov	r8, r6
    5190:	eafffe2e 	b	4a50 <_dtoa_r+0x7c8>
    5194:	e51f1984 	ldr	r1, [pc, #-2436]	; 4818 <_dtoa_r+0x590>
    5198:	e24ca001 	sub	r10, r12, #1
    519c:	e081118a 	add	r1, r1, r10, lsl #3
    51a0:	e1a02008 	mov	r2, r8
    51a4:	e1a03009 	mov	r3, r9
    51a8:	e8910003 	ldm	r1, {r0, r1}
    51ac:	e58dc00c 	str	r12, [sp, #12]
    51b0:	eb001354 	bl	9f08 <__aeabi_dmul>
    51b4:	e58d0048 	str	r0, [sp, #72]	; 0x48
    51b8:	e58d104c 	str	r1, [sp, #76]	; 0x4c
    51bc:	e1a01007 	mov	r1, r7
    51c0:	e1a00006 	mov	r0, r6
    51c4:	eb0014c7 	bl	a4e8 <__aeabi_d2iz>
    51c8:	e1a05000 	mov	r5, r0
    51cc:	eb001316 	bl	9e2c <__aeabi_i2d>
    51d0:	e1a02000 	mov	r2, r0
    51d4:	e1a03001 	mov	r3, r1
    51d8:	e1a00006 	mov	r0, r6
    51dc:	e1a01007 	mov	r1, r7
    51e0:	eb001243 	bl	9af4 <__aeabi_dsub>
    51e4:	e59dc00c 	ldr	r12, [sp, #12]
    51e8:	e1a07001 	mov	r7, r1
    51ec:	e59d1020 	ldr	r1, [sp, #32]
    51f0:	e59d2020 	ldr	r2, [sp, #32]
    51f4:	e2855030 	add	r5, r5, #48	; 0x30
    51f8:	e2811001 	add	r1, r1, #1
    51fc:	e35c0001 	cmp	r12, #1
    5200:	e5c25000 	strb	r5, [r2]
    5204:	e1a06000 	mov	r6, r0
    5208:	e58d1058 	str	r1, [sp, #88]	; 0x58
    520c:	e1a05001 	mov	r5, r1
    5210:	0a00001a 	beq	5280 <_dtoa_r+0xff8>
    5214:	e59d3020 	ldr	r3, [sp, #32]
    5218:	e2439001 	sub	r9, r3, #1
    521c:	e089900c 	add	r9, r9, r12
    5220:	e1a05003 	mov	r5, r3
    5224:	e1a00006 	mov	r0, r6
    5228:	e1a01007 	mov	r1, r7
    522c:	e3a02000 	mov	r2, #0
    5230:	e51f3a18 	ldr	r3, [pc, #-2584]	; 4820 <_dtoa_r+0x598>
    5234:	eb001333 	bl	9f08 <__aeabi_dmul>
    5238:	e1a07001 	mov	r7, r1
    523c:	e1a06000 	mov	r6, r0
    5240:	eb0014a8 	bl	a4e8 <__aeabi_d2iz>
    5244:	e1a08000 	mov	r8, r0
    5248:	eb0012f7 	bl	9e2c <__aeabi_i2d>
    524c:	e2888030 	add	r8, r8, #48	; 0x30
    5250:	e1a02000 	mov	r2, r0
    5254:	e1a03001 	mov	r3, r1
    5258:	e1a00006 	mov	r0, r6
    525c:	e1a01007 	mov	r1, r7
    5260:	eb001223 	bl	9af4 <__aeabi_dsub>
    5264:	e5e58001 	strb	r8, [r5, #1]!
    5268:	e1550009 	cmp	r5, r9
    526c:	1affffee 	bne	522c <_dtoa_r+0xfa4>
    5270:	e59dc058 	ldr	r12, [sp, #88]	; 0x58
    5274:	e1a06000 	mov	r6, r0
    5278:	e1a07001 	mov	r7, r1
    527c:	e08c500a 	add	r5, r12, r10
    5280:	e3a02000 	mov	r2, #0
    5284:	e51f3a64 	ldr	r3, [pc, #-2660]	; 4828 <_dtoa_r+0x5a0>
    5288:	e28d1048 	add	r1, sp, #72	; 0x48
    528c:	e8910003 	ldm	r1, {r0, r1}
    5290:	eb001218 	bl	9af8 <__adddf3>
    5294:	e1a02006 	mov	r2, r6
    5298:	e1a03007 	mov	r3, r7
    529c:	eb001479 	bl	a488 <__aeabi_dcmplt>
    52a0:	e3500000 	cmp	r0, #0
    52a4:	0a000101 	beq	56b0 <_dtoa_r+0x1428>
    52a8:	e59d9020 	ldr	r9, [sp, #32]
    52ac:	e5558001 	ldrb	r8, [r5, #-1]
    52b0:	eafffd45 	b	47cc <_dtoa_r+0x544>
    52b4:	e5963010 	ldr	r3, [r6, #16]
    52b8:	e0863103 	add	r3, r6, r3, lsl #2
    52bc:	e5930010 	ldr	r0, [r3, #16]
    52c0:	eb00064f 	bl	6c04 <__hi0bits>
    52c4:	e2600020 	rsb	r0, r0, #32
    52c8:	eafffda7 	b	496c <_dtoa_r+0x6e4>
    52cc:	e59d0030 	ldr	r0, [sp, #48]	; 0x30
    52d0:	e1a01006 	mov	r1, r6
    52d4:	eb00078d 	bl	7110 <__mcmp>
    52d8:	e3500000 	cmp	r0, #0
    52dc:	aafffdc4 	bge	49f4 <_dtoa_r+0x76c>
    52e0:	e59d1030 	ldr	r1, [sp, #48]	; 0x30
    52e4:	e1a00004 	mov	r0, r4
    52e8:	e3a0200a 	mov	r2, #10
    52ec:	e3a03000 	mov	r3, #0
    52f0:	eb0005d2 	bl	6a40 <__multadd>
    52f4:	e59dc038 	ldr	r12, [sp, #56]	; 0x38
    52f8:	e35c0000 	cmp	r12, #0
    52fc:	e59dc018 	ldr	r12, [sp, #24]
    5300:	e24cc001 	sub	r12, r12, #1
    5304:	e58d0030 	str	r0, [sp, #48]	; 0x30
    5308:	e58dc018 	str	r12, [sp, #24]
    530c:	1a000030 	bne	53d4 <_dtoa_r+0x114c>
    5310:	e59dc03c 	ldr	r12, [sp, #60]	; 0x3c
    5314:	e59d1098 	ldr	r1, [sp, #152]	; 0x98
    5318:	e35c0000 	cmp	r12, #0
    531c:	c3a03000 	movgt	r3, #0
    5320:	d3a03001 	movle	r3, #1
    5324:	e3510002 	cmp	r1, #2
    5328:	d3a03000 	movle	r3, #0
    532c:	e3530000 	cmp	r3, #0
    5330:	058dc028 	streq	r12, [sp, #40]	; 0x28
    5334:	0affff36 	beq	5014 <_dtoa_r+0xd8c>
    5338:	e59dc03c 	ldr	r12, [sp, #60]	; 0x3c
    533c:	e58dc028 	str	r12, [sp, #40]	; 0x28
    5340:	eafffdb4 	b	4a18 <_dtoa_r+0x790>
    5344:	e59dc028 	ldr	r12, [sp, #40]	; 0x28
    5348:	e35c0000 	cmp	r12, #0
    534c:	1a000132 	bne	581c <_dtoa_r+0x1594>
    5350:	e3a02000 	mov	r2, #0
    5354:	e51f3b40 	ldr	r3, [pc, #-2880]	; 481c <_dtoa_r+0x594>
    5358:	e28d1010 	add	r1, sp, #16
    535c:	e8910003 	ldm	r1, {r0, r1}
    5360:	eb0012e8 	bl	9f08 <__aeabi_dmul>
    5364:	e1a0200a 	mov	r2, r10
    5368:	e1a0300b 	mov	r3, r11
    536c:	eb001451 	bl	a4b8 <__aeabi_dcmpge>
    5370:	e59d6028 	ldr	r6, [sp, #40]	; 0x28
    5374:	e3500000 	cmp	r0, #0
    5378:	e1a08006 	mov	r8, r6
    537c:	1affff19 	bne	4fe8 <_dtoa_r+0xd60>
    5380:	eafffdb2 	b	4a50 <_dtoa_r+0x7c8>
    5384:	e35a0000 	cmp	r10, #0
    5388:	1afffd72 	bne	4958 <_dtoa_r+0x6d0>
    538c:	e3cb34ff 	bic	r3, r11, #-16777216	; 0xff000000
    5390:	e3c3360f 	bic	r3, r3, #15728640	; 0xf00000
    5394:	e3530000 	cmp	r3, #0
    5398:	11a0700a 	movne	r7, r10
    539c:	1afffd6e 	bne	495c <_dtoa_r+0x6d4>
    53a0:	e3cb7102 	bic	r7, r11, #-2147483648	; 0x80000000
    53a4:	e1a07a27 	lsr	r7, r7, #20
    53a8:	e1a07a07 	lsl	r7, r7, #20
    53ac:	e3570000 	cmp	r7, #0
    53b0:	0afffd69 	beq	495c <_dtoa_r+0x6d4>
    53b4:	e59dc02c 	ldr	r12, [sp, #44]	; 0x2c
    53b8:	e28cc001 	add	r12, r12, #1
    53bc:	e58dc02c 	str	r12, [sp, #44]	; 0x2c
    53c0:	e59dc024 	ldr	r12, [sp, #36]	; 0x24
    53c4:	e28cc001 	add	r12, r12, #1
    53c8:	e58dc024 	str	r12, [sp, #36]	; 0x24
    53cc:	e3a07001 	mov	r7, #1
    53d0:	eafffd61 	b	495c <_dtoa_r+0x6d4>
    53d4:	e3a03000 	mov	r3, #0
    53d8:	e1a01008 	mov	r1, r8
    53dc:	e1a00004 	mov	r0, r4
    53e0:	e3a0200a 	mov	r2, #10
    53e4:	eb000595 	bl	6a40 <__multadd>
    53e8:	e59dc03c 	ldr	r12, [sp, #60]	; 0x3c
    53ec:	e59d1098 	ldr	r1, [sp, #152]	; 0x98
    53f0:	e35c0000 	cmp	r12, #0
    53f4:	c3a03000 	movgt	r3, #0
    53f8:	d3a03001 	movle	r3, #1
    53fc:	e3510002 	cmp	r1, #2
    5400:	d3a03000 	movle	r3, #0
    5404:	e3530000 	cmp	r3, #0
    5408:	e1a08000 	mov	r8, r0
    540c:	058dc028 	streq	r12, [sp, #40]	; 0x28
    5410:	1affffc8 	bne	5338 <_dtoa_r+0x10b0>
    5414:	e3550000 	cmp	r5, #0
    5418:	da000004 	ble	5430 <_dtoa_r+0x11a8>
    541c:	e1a01008 	mov	r1, r8
    5420:	e1a02005 	mov	r2, r5
    5424:	e1a00004 	mov	r0, r4
    5428:	eb0006f5 	bl	7004 <__lshift>
    542c:	e1a08000 	mov	r8, r0
    5430:	e3570000 	cmp	r7, #0
    5434:	01a0c008 	moveq	r12, r8
    5438:	1a0000f9 	bne	5824 <_dtoa_r+0x159c>
    543c:	e59d1020 	ldr	r1, [sp, #32]
    5440:	e59d3028 	ldr	r3, [sp, #40]	; 0x28
    5444:	e59d2020 	ldr	r2, [sp, #32]
    5448:	e2811001 	add	r1, r1, #1
    544c:	e58d1058 	str	r1, [sp, #88]	; 0x58
    5450:	e0822003 	add	r2, r2, r3
    5454:	e20a1001 	and	r1, r10, #1
    5458:	e1a07006 	mov	r7, r6
    545c:	e58d202c 	str	r2, [sp, #44]	; 0x2c
    5460:	e58d1028 	str	r1, [sp, #40]	; 0x28
    5464:	e59d5058 	ldr	r5, [sp, #88]	; 0x58
    5468:	e1a0900c 	mov	r9, r12
    546c:	e59d6030 	ldr	r6, [sp, #48]	; 0x30
    5470:	ea000008 	b	5498 <_dtoa_r+0x1210>
    5474:	eb000571 	bl	6a40 <__multadd>
    5478:	e1a01009 	mov	r1, r9
    547c:	e1a08000 	mov	r8, r0
    5480:	e3a0200a 	mov	r2, #10
    5484:	e1a00004 	mov	r0, r4
    5488:	e3a03000 	mov	r3, #0
    548c:	eb00056b 	bl	6a40 <__multadd>
    5490:	e1a09000 	mov	r9, r0
    5494:	e2855001 	add	r5, r5, #1
    5498:	e1a01007 	mov	r1, r7
    549c:	e1a00006 	mov	r0, r6
    54a0:	ebfffb00 	bl	40a8 <quorem>
    54a4:	e1a01008 	mov	r1, r8
    54a8:	e1a0a000 	mov	r10, r0
    54ac:	e1a00006 	mov	r0, r6
    54b0:	eb000716 	bl	7110 <__mcmp>
    54b4:	e1a02009 	mov	r2, r9
    54b8:	e1a0b000 	mov	r11, r0
    54bc:	e1a01007 	mov	r1, r7
    54c0:	e1a00004 	mov	r0, r4
    54c4:	eb000729 	bl	7170 <__mdiff>
    54c8:	e590200c 	ldr	r2, [r0, #12]
    54cc:	e245c001 	sub	r12, r5, #1
    54d0:	e3520000 	cmp	r2, #0
    54d4:	e28a2030 	add	r2, r10, #48	; 0x30
    54d8:	e1a03000 	mov	r3, r0
    54dc:	e58d201c 	str	r2, [sp, #28]
    54e0:	e58dc024 	str	r12, [sp, #36]	; 0x24
    54e4:	1a000030 	bne	55ac <_dtoa_r+0x1324>
    54e8:	e1a01003 	mov	r1, r3
    54ec:	e1a00006 	mov	r0, r6
    54f0:	e58d300c 	str	r3, [sp, #12]
    54f4:	eb000705 	bl	7110 <__mcmp>
    54f8:	e59d300c 	ldr	r3, [sp, #12]
    54fc:	e1a02000 	mov	r2, r0
    5500:	e1a01003 	mov	r1, r3
    5504:	e1a00004 	mov	r0, r4
    5508:	e58d200c 	str	r2, [sp, #12]
    550c:	eb000544 	bl	6a24 <_Bfree>
    5510:	e59d200c 	ldr	r2, [sp, #12]
    5514:	e59dc098 	ldr	r12, [sp, #152]	; 0x98
    5518:	e192c00c 	orrs	r12, r2, r12
    551c:	1a000002 	bne	552c <_dtoa_r+0x12a4>
    5520:	e59dc028 	ldr	r12, [sp, #40]	; 0x28
    5524:	e35c0000 	cmp	r12, #0
    5528:	0a0000f7 	beq	590c <_dtoa_r+0x1684>
    552c:	e35b0000 	cmp	r11, #0
    5530:	ba000092 	blt	5780 <_dtoa_r+0x14f8>
    5534:	e59dc098 	ldr	r12, [sp, #152]	; 0x98
    5538:	e19bc00c 	orrs	r12, r11, r12
    553c:	1a000002 	bne	554c <_dtoa_r+0x12c4>
    5540:	e59dc028 	ldr	r12, [sp, #40]	; 0x28
    5544:	e35c0000 	cmp	r12, #0
    5548:	0a00008c 	beq	5780 <_dtoa_r+0x14f8>
    554c:	e3520000 	cmp	r2, #0
    5550:	ca0000d1 	bgt	589c <_dtoa_r+0x1614>
    5554:	e59dc02c 	ldr	r12, [sp, #44]	; 0x2c
    5558:	e59d201c 	ldr	r2, [sp, #28]
    555c:	e155000c 	cmp	r5, r12
    5560:	e5452001 	strb	r2, [r5, #-1]
    5564:	e1a0b005 	mov	r11, r5
    5568:	0a0000da 	beq	58d8 <_dtoa_r+0x1650>
    556c:	e1a01006 	mov	r1, r6
    5570:	e3a0200a 	mov	r2, #10
    5574:	e3a03000 	mov	r3, #0
    5578:	e1a00004 	mov	r0, r4
    557c:	eb00052f 	bl	6a40 <__multadd>
    5580:	e1580009 	cmp	r8, r9
    5584:	e1a06000 	mov	r6, r0
    5588:	e1a01008 	mov	r1, r8
    558c:	e1a00004 	mov	r0, r4
    5590:	e3a0200a 	mov	r2, #10
    5594:	e3a03000 	mov	r3, #0
    5598:	1affffb5 	bne	5474 <_dtoa_r+0x11ec>
    559c:	eb000527 	bl	6a40 <__multadd>
    55a0:	e1a08000 	mov	r8, r0
    55a4:	e1a09000 	mov	r9, r0
    55a8:	eaffffb9 	b	5494 <_dtoa_r+0x120c>
    55ac:	e3a02001 	mov	r2, #1
    55b0:	eaffffd2 	b	5500 <_dtoa_r+0x1278>
    55b4:	e3a0c001 	mov	r12, #1
    55b8:	e58dc038 	str	r12, [sp, #56]	; 0x38
    55bc:	eafffe59 	b	4f28 <_dtoa_r+0xca0>
    55c0:	e3a03001 	mov	r3, #1
    55c4:	e58d309c 	str	r3, [sp, #156]	; 0x9c
    55c8:	e58d303c 	str	r3, [sp, #60]	; 0x3c
    55cc:	e58d3028 	str	r3, [sp, #40]	; 0x28
    55d0:	e3a01000 	mov	r1, #0
    55d4:	e0035005 	and	r5, r3, r5
    55d8:	e5841044 	str	r1, [r4, #68]	; 0x44
    55dc:	eafffd91 	b	4c28 <_dtoa_r+0x9a0>
    55e0:	e35c000e 	cmp	r12, #14
    55e4:	83a03000 	movhi	r3, #0
    55e8:	93a03001 	movls	r3, #1
    55ec:	eafffff7 	b	55d0 <_dtoa_r+0x1348>
    55f0:	e28d1030 	add	r1, sp, #48	; 0x30
    55f4:	e8910006 	ldm	r1, {r1, r2}
    55f8:	e1a00004 	mov	r0, r4
    55fc:	eb00063f 	bl	6f00 <__pow5mult>
    5600:	e58d0030 	str	r0, [sp, #48]	; 0x30
    5604:	eafffcc4 	b	491c <_dtoa_r+0x694>
    5608:	e59dc028 	ldr	r12, [sp, #40]	; 0x28
    560c:	e35c0000 	cmp	r12, #0
    5610:	0afffe54 	beq	4f68 <_dtoa_r+0xce0>
    5614:	e59dc03c 	ldr	r12, [sp, #60]	; 0x3c
    5618:	e35c0000 	cmp	r12, #0
    561c:	dafffebb 	ble	5110 <_dtoa_r+0xe88>
    5620:	e3a02000 	mov	r2, #0
    5624:	e51f3e0c 	ldr	r3, [pc, #-3596]	; 4820 <_dtoa_r+0x598>
    5628:	e1a00006 	mov	r0, r6
    562c:	e1a01007 	mov	r1, r7
    5630:	eb001234 	bl	9f08 <__aeabi_dmul>
    5634:	e1a06000 	mov	r6, r0
    5638:	e2880001 	add	r0, r8, #1
    563c:	e1a07001 	mov	r7, r1
    5640:	eb0011f9 	bl	9e2c <__aeabi_i2d>
    5644:	e1a02000 	mov	r2, r0
    5648:	e1a03001 	mov	r3, r1
    564c:	e1a00006 	mov	r0, r6
    5650:	e1a01007 	mov	r1, r7
    5654:	eb00122b 	bl	9f08 <__aeabi_dmul>
    5658:	e3a02000 	mov	r2, #0
    565c:	e51f3e40 	ldr	r3, [pc, #-3648]	; 4824 <_dtoa_r+0x59c>
    5660:	eb001124 	bl	9af8 <__adddf3>
    5664:	e59dc018 	ldr	r12, [sp, #24]
    5668:	e24cc001 	sub	r12, r12, #1
    566c:	e58dc060 	str	r12, [sp, #96]	; 0x60
    5670:	e1a08000 	mov	r8, r0
    5674:	e241950d 	sub	r9, r1, #54525952	; 0x3400000
    5678:	e59dc03c 	ldr	r12, [sp, #60]	; 0x3c
    567c:	eafffdb4 	b	4d54 <_dtoa_r+0xacc>
    5680:	e59dc060 	ldr	r12, [sp, #96]	; 0x60
    5684:	e58d2020 	str	r2, [sp, #32]
    5688:	e28cc001 	add	r12, r12, #1
    568c:	e3a02030 	mov	r2, #48	; 0x30
    5690:	e5c32000 	strb	r2, [r3]
    5694:	e58dc018 	str	r12, [sp, #24]
    5698:	e3a02031 	mov	r2, #49	; 0x31
    569c:	eafffc6f 	b	4860 <_dtoa_r+0x5d8>
    56a0:	e28d7050 	add	r7, sp, #80	; 0x50
    56a4:	e89700c0 	ldm	r7, {r6, r7}
    56a8:	e3a08002 	mov	r8, #2
    56ac:	eafffd8e 	b	4cec <_dtoa_r+0xa64>
    56b0:	e28d3048 	add	r3, sp, #72	; 0x48
    56b4:	e893000c 	ldm	r3, {r2, r3}
    56b8:	e3a00000 	mov	r0, #0
    56bc:	e51f1e9c 	ldr	r1, [pc, #-3740]	; 4828 <_dtoa_r+0x5a0>
    56c0:	eb00110b 	bl	9af4 <__aeabi_dsub>
    56c4:	e1a02006 	mov	r2, r6
    56c8:	e1a03007 	mov	r3, r7
    56cc:	eb00137f 	bl	a4d0 <__aeabi_dcmpgt>
    56d0:	e3500000 	cmp	r0, #0
    56d4:	0afffe8d 	beq	5110 <_dtoa_r+0xe88>
    56d8:	e5552001 	ldrb	r2, [r5, #-1]
    56dc:	e3520030 	cmp	r2, #48	; 0x30
    56e0:	e1a03005 	mov	r3, r5
    56e4:	e2455001 	sub	r5, r5, #1
    56e8:	0afffffa 	beq	56d8 <_dtoa_r+0x1450>
    56ec:	e59dc060 	ldr	r12, [sp, #96]	; 0x60
    56f0:	e59d9020 	ldr	r9, [sp, #32]
    56f4:	e58dc018 	str	r12, [sp, #24]
    56f8:	e58d3020 	str	r3, [sp, #32]
    56fc:	eafffce8 	b	4aa4 <_dtoa_r+0x81c>
    5700:	e59d1030 	ldr	r1, [sp, #48]	; 0x30
    5704:	e1a00004 	mov	r0, r4
    5708:	eb0005fc 	bl	6f00 <__pow5mult>
    570c:	e58d0030 	str	r0, [sp, #48]	; 0x30
    5710:	eafffc81 	b	491c <_dtoa_r+0x694>
    5714:	e59dc018 	ldr	r12, [sp, #24]
    5718:	e3a03031 	mov	r3, #49	; 0x31
    571c:	e28cc001 	add	r12, r12, #1
    5720:	e59d9020 	ldr	r9, [sp, #32]
    5724:	e58dc018 	str	r12, [sp, #24]
    5728:	e58db020 	str	r11, [sp, #32]
    572c:	e5c23000 	strb	r3, [r2]
    5730:	eafffcd0 	b	4a78 <_dtoa_r+0x7f0>
    5734:	e59dc05c 	ldr	r12, [sp, #92]	; 0x5c
    5738:	e35c0000 	cmp	r12, #0
    573c:	059d3068 	ldreq	r3, [sp, #104]	; 0x68
    5740:	12833e43 	addne	r3, r3, #1072	; 0x430
    5744:	12833003 	addne	r3, r3, #3
    5748:	159d6034 	ldrne	r6, [sp, #52]	; 0x34
    574c:	059d6034 	ldreq	r6, [sp, #52]	; 0x34
    5750:	02633036 	rsbeq	r3, r3, #54	; 0x36
    5754:	e59d502c 	ldr	r5, [sp, #44]	; 0x2c
    5758:	eafffd0f 	b	4b9c <_dtoa_r+0x914>
    575c:	e59d401c 	ldr	r4, [sp, #28]
    5760:	e1a0500b 	mov	r5, r11
    5764:	e59d9020 	ldr	r9, [sp, #32]
    5768:	e58d5020 	str	r5, [sp, #32]
    576c:	eafffccc 	b	4aa4 <_dtoa_r+0x81c>
    5770:	e59d4064 	ldr	r4, [sp, #100]	; 0x64
    5774:	e1a05009 	mov	r5, r9
    5778:	e59d9020 	ldr	r9, [sp, #32]
    577c:	eafffc12 	b	47cc <_dtoa_r+0x544>
    5780:	e3520000 	cmp	r2, #0
    5784:	e58d6030 	str	r6, [sp, #48]	; 0x30
    5788:	e1a0c009 	mov	r12, r9
    578c:	e1a06007 	mov	r6, r7
    5790:	e59d701c 	ldr	r7, [sp, #28]
    5794:	da00000d 	ble	57d0 <_dtoa_r+0x1548>
    5798:	e59d1030 	ldr	r1, [sp, #48]	; 0x30
    579c:	e3a02001 	mov	r2, #1
    57a0:	e1a00004 	mov	r0, r4
    57a4:	e58d900c 	str	r9, [sp, #12]
    57a8:	eb000615 	bl	7004 <__lshift>
    57ac:	e1a01006 	mov	r1, r6
    57b0:	e58d0030 	str	r0, [sp, #48]	; 0x30
    57b4:	eb000655 	bl	7110 <__mcmp>
    57b8:	e3500000 	cmp	r0, #0
    57bc:	e59dc00c 	ldr	r12, [sp, #12]
    57c0:	da00005a 	ble	5930 <_dtoa_r+0x16a8>
    57c4:	e3570039 	cmp	r7, #57	; 0x39
    57c8:	0a000048 	beq	58f0 <_dtoa_r+0x1668>
    57cc:	e28a7031 	add	r7, r10, #49	; 0x31
    57d0:	e59d3024 	ldr	r3, [sp, #36]	; 0x24
    57d4:	e2831001 	add	r1, r3, #1
    57d8:	e59d9020 	ldr	r9, [sp, #32]
    57dc:	e1a05008 	mov	r5, r8
    57e0:	e5c37000 	strb	r7, [r3]
    57e4:	e1a0800c 	mov	r8, r12
    57e8:	e58d1020 	str	r1, [sp, #32]
    57ec:	eafffca1 	b	4a78 <_dtoa_r+0x7f0>
    57f0:	1a000001 	bne	57fc <_dtoa_r+0x1574>
    57f4:	e3170001 	tst	r7, #1
    57f8:	1afffe29 	bne	50a4 <_dtoa_r+0xe1c>
    57fc:	e55b2001 	ldrb	r2, [r11, #-1]
    5800:	e3520030 	cmp	r2, #48	; 0x30
    5804:	e1a0300b 	mov	r3, r11
    5808:	e24bb001 	sub	r11, r11, #1
    580c:	0afffffa 	beq	57fc <_dtoa_r+0x1574>
    5810:	e59d9020 	ldr	r9, [sp, #32]
    5814:	e58d3020 	str	r3, [sp, #32]
    5818:	eafffc96 	b	4a78 <_dtoa_r+0x7f0>
    581c:	e3a06000 	mov	r6, #0
    5820:	eafffdef 	b	4fe4 <_dtoa_r+0xd5c>
    5824:	e5981004 	ldr	r1, [r8, #4]
    5828:	e1a00004 	mov	r0, r4
    582c:	eb000459 	bl	6998 <_Balloc>
    5830:	e5982010 	ldr	r2, [r8, #16]
    5834:	e2822002 	add	r2, r2, #2
    5838:	e1a05000 	mov	r5, r0
    583c:	e1a02102 	lsl	r2, r2, #2
    5840:	e288100c 	add	r1, r8, #12
    5844:	e280000c 	add	r0, r0, #12
    5848:	ebffeebd 	bl	1344 <memcpy>
    584c:	e1a00004 	mov	r0, r4
    5850:	e1a01005 	mov	r1, r5
    5854:	e3a02001 	mov	r2, #1
    5858:	eb0005e9 	bl	7004 <__lshift>
    585c:	e1a0c000 	mov	r12, r0
    5860:	eafffef5 	b	543c <_dtoa_r+0x11b4>
    5864:	e28d1010 	add	r1, sp, #16
    5868:	e8910003 	ldm	r1, {r0, r1}
    586c:	e1a02006 	mov	r2, r6
    5870:	e1a03007 	mov	r3, r7
    5874:	eb0012fd 	bl	a470 <__aeabi_dcmpeq>
    5878:	e3500000 	cmp	r0, #0
    587c:	0affffb8 	beq	5764 <_dtoa_r+0x14dc>
    5880:	e3180001 	tst	r8, #1
    5884:	e59d9020 	ldr	r9, [sp, #32]
    5888:	0affffb6 	beq	5768 <_dtoa_r+0x14e0>
    588c:	e59dc018 	ldr	r12, [sp, #24]
    5890:	e58dc060 	str	r12, [sp, #96]	; 0x60
    5894:	e5558001 	ldrb	r8, [r5, #-1]
    5898:	eafffbcb 	b	47cc <_dtoa_r+0x544>
    589c:	e58d6030 	str	r6, [sp, #48]	; 0x30
    58a0:	e1a06007 	mov	r6, r7
    58a4:	e59d701c 	ldr	r7, [sp, #28]
    58a8:	e3570039 	cmp	r7, #57	; 0x39
    58ac:	e1a0c009 	mov	r12, r9
    58b0:	0a00000e 	beq	58f0 <_dtoa_r+0x1668>
    58b4:	e59d3024 	ldr	r3, [sp, #36]	; 0x24
    58b8:	e2877001 	add	r7, r7, #1
    58bc:	e2831001 	add	r1, r3, #1
    58c0:	e59d9020 	ldr	r9, [sp, #32]
    58c4:	e1a05008 	mov	r5, r8
    58c8:	e5c37000 	strb	r7, [r3]
    58cc:	e58d1020 	str	r1, [sp, #32]
    58d0:	e1a0800c 	mov	r8, r12
    58d4:	eafffc67 	b	4a78 <_dtoa_r+0x7f0>
    58d8:	e58d6030 	str	r6, [sp, #48]	; 0x30
    58dc:	e1a05008 	mov	r5, r8
    58e0:	e1a06007 	mov	r6, r7
    58e4:	e1a08009 	mov	r8, r9
    58e8:	e59d701c 	ldr	r7, [sp, #28]
    58ec:	eafffde3 	b	5080 <_dtoa_r+0xdf8>
    58f0:	e59d2024 	ldr	r2, [sp, #36]	; 0x24
    58f4:	e3a03039 	mov	r3, #57	; 0x39
    58f8:	e1a05008 	mov	r5, r8
    58fc:	e5c23000 	strb	r3, [r2]
    5900:	e1a0800c 	mov	r8, r12
    5904:	e282b001 	add	r11, r2, #1
    5908:	eafffde9 	b	50b4 <_dtoa_r+0xe2c>
    590c:	e58d6030 	str	r6, [sp, #48]	; 0x30
    5910:	e1a06007 	mov	r6, r7
    5914:	e59d701c 	ldr	r7, [sp, #28]
    5918:	e3570039 	cmp	r7, #57	; 0x39
    591c:	e1a0c009 	mov	r12, r9
    5920:	0afffff2 	beq	58f0 <_dtoa_r+0x1668>
    5924:	e35b0000 	cmp	r11, #0
    5928:	caffffa7 	bgt	57cc <_dtoa_r+0x1544>
    592c:	eaffffa7 	b	57d0 <_dtoa_r+0x1548>
    5930:	1affffa6 	bne	57d0 <_dtoa_r+0x1548>
    5934:	e3170001 	tst	r7, #1
    5938:	0affffa4 	beq	57d0 <_dtoa_r+0x1548>
    593c:	eaffffa0 	b	57c4 <_dtoa_r+0x153c>
    5940:	e59dc058 	ldr	r12, [sp, #88]	; 0x58
    5944:	e59d9020 	ldr	r9, [sp, #32]
    5948:	e58dc020 	str	r12, [sp, #32]
    594c:	eafffc54 	b	4aa4 <_dtoa_r+0x81c>
    5950:	e3a08002 	mov	r8, #2
    5954:	eafffce4 	b	4cec <_dtoa_r+0xa64>
    5958:	e59dc060 	ldr	r12, [sp, #96]	; 0x60
    595c:	e58dc018 	str	r12, [sp, #24]
    5960:	e59dc058 	ldr	r12, [sp, #88]	; 0x58
    5964:	e59d9020 	ldr	r9, [sp, #32]
    5968:	e58dc020 	str	r12, [sp, #32]
    596c:	eafffc4c 	b	4aa4 <_dtoa_r+0x81c>
    5970:	1263303c 	rsbne	r3, r3, #60	; 0x3c
    5974:	0afffc0b 	beq	49a8 <_dtoa_r+0x720>
    5978:	eafffc03 	b	498c <_dtoa_r+0x704>
    597c:	e1a00000 	nop			; (mov r0, r0)

00005980 <_fclose_r>:
    5980:	e92d4070 	push	{r4, r5, r6, lr}
    5984:	e2514000 	subs	r4, r1, #0
    5988:	e1a05000 	mov	r5, r0
    598c:	0a000007 	beq	59b0 <_fclose_r+0x30>
    5990:	e3500000 	cmp	r0, #0
    5994:	0a000002 	beq	59a4 <_fclose_r+0x24>
    5998:	e5903038 	ldr	r3, [r0, #56]	; 0x38
    599c:	e3530000 	cmp	r3, #0
    59a0:	0a00002c 	beq	5a58 <_fclose_r+0xd8>
    59a4:	e1d430fc 	ldrsh	r3, [r4, #12]
    59a8:	e3530000 	cmp	r3, #0
    59ac:	1a000002 	bne	59bc <_fclose_r+0x3c>
    59b0:	e3a00000 	mov	r0, #0
    59b4:	e8bd4070 	pop	{r4, r5, r6, lr}
    59b8:	e12fff1e 	bx	lr
    59bc:	e1a00005 	mov	r0, r5
    59c0:	e1a01004 	mov	r1, r4
    59c4:	eb0000bf 	bl	5cc8 <_fflush_r>
    59c8:	e594302c 	ldr	r3, [r4, #44]	; 0x2c
    59cc:	e3530000 	cmp	r3, #0
    59d0:	e1a06000 	mov	r6, r0
    59d4:	0a000005 	beq	59f0 <_fclose_r+0x70>
    59d8:	e1a00005 	mov	r0, r5
    59dc:	e594101c 	ldr	r1, [r4, #28]
    59e0:	e1a0e00f 	mov	lr, pc
    59e4:	e12fff13 	bx	r3
    59e8:	e3500000 	cmp	r0, #0
    59ec:	b3e06000 	mvnlt	r6, #0
    59f0:	e1d430bc 	ldrh	r3, [r4, #12]
    59f4:	e3130080 	tst	r3, #128	; 0x80
    59f8:	1a000018 	bne	5a60 <_fclose_r+0xe0>
    59fc:	e5941030 	ldr	r1, [r4, #48]	; 0x30
    5a00:	e3510000 	cmp	r1, #0
    5a04:	0a000005 	beq	5a20 <_fclose_r+0xa0>
    5a08:	e2843040 	add	r3, r4, #64	; 0x40
    5a0c:	e1510003 	cmp	r1, r3
    5a10:	11a00005 	movne	r0, r5
    5a14:	1b000121 	blne	5ea0 <_free_r>
    5a18:	e3a03000 	mov	r3, #0
    5a1c:	e5843030 	str	r3, [r4, #48]	; 0x30
    5a20:	e5941044 	ldr	r1, [r4, #68]	; 0x44
    5a24:	e3510000 	cmp	r1, #0
    5a28:	0a000003 	beq	5a3c <_fclose_r+0xbc>
    5a2c:	e1a00005 	mov	r0, r5
    5a30:	eb00011a 	bl	5ea0 <_free_r>
    5a34:	e3a03000 	mov	r3, #0
    5a38:	e5843044 	str	r3, [r4, #68]	; 0x44
    5a3c:	ebffebd6 	bl	99c <__sfp_lock_acquire>
    5a40:	e3a03000 	mov	r3, #0
    5a44:	e1c430bc 	strh	r3, [r4, #12]
    5a48:	ebffebd4 	bl	9a0 <__sfp_lock_release>
    5a4c:	e1a00006 	mov	r0, r6
    5a50:	e8bd4070 	pop	{r4, r5, r6, lr}
    5a54:	e12fff1e 	bx	lr
    5a58:	ebffeb37 	bl	73c <__sinit>
    5a5c:	eaffffd0 	b	59a4 <_fclose_r+0x24>
    5a60:	e1a00005 	mov	r0, r5
    5a64:	e5941010 	ldr	r1, [r4, #16]
    5a68:	eb00010c 	bl	5ea0 <_free_r>
    5a6c:	eaffffe2 	b	59fc <_fclose_r+0x7c>

00005a70 <fclose>:
    5a70:	e59f3008 	ldr	r3, [pc, #8]	; 5a80 <fclose+0x10>
    5a74:	e1a01000 	mov	r1, r0
    5a78:	e5930000 	ldr	r0, [r3]
    5a7c:	eaffffbf 	b	5980 <_fclose_r>
    5a80:	0000bb38 	.word	0x0000bb38

00005a84 <__sflush_r>:
    5a84:	e92d40f8 	push	{r3, r4, r5, r6, r7, lr}
    5a88:	e1d130bc 	ldrh	r3, [r1, #12]
    5a8c:	e3130008 	tst	r3, #8
    5a90:	e1a05001 	mov	r5, r1
    5a94:	e1a07000 	mov	r7, r0
    5a98:	1a000030 	bne	5b60 <__sflush_r+0xdc>
    5a9c:	e5912004 	ldr	r2, [r1, #4]
    5aa0:	e3833b02 	orr	r3, r3, #2048	; 0x800
    5aa4:	e3520000 	cmp	r2, #0
    5aa8:	e1c130bc 	strh	r3, [r1, #12]
    5aac:	da00004b 	ble	5be0 <__sflush_r+0x15c>
    5ab0:	e595c028 	ldr	r12, [r5, #40]	; 0x28
    5ab4:	e35c0000 	cmp	r12, #0
    5ab8:	0a00004b 	beq	5bec <__sflush_r+0x168>
    5abc:	e3a01000 	mov	r1, #0
    5ac0:	e2136a01 	ands	r6, r3, #4096	; 0x1000
    5ac4:	e5974000 	ldr	r4, [r7]
    5ac8:	e5871000 	str	r1, [r7]
    5acc:	0a000049 	beq	5bf8 <__sflush_r+0x174>
    5ad0:	e5952050 	ldr	r2, [r5, #80]	; 0x50
    5ad4:	e3130004 	tst	r3, #4
    5ad8:	0a000005 	beq	5af4 <__sflush_r+0x70>
    5adc:	e5951030 	ldr	r1, [r5, #48]	; 0x30
    5ae0:	e5953004 	ldr	r3, [r5, #4]
    5ae4:	e3510000 	cmp	r1, #0
    5ae8:	e0632002 	rsb	r2, r3, r2
    5aec:	1595303c 	ldrne	r3, [r5, #60]	; 0x3c
    5af0:	10632002 	rsbne	r2, r3, r2
    5af4:	e1a00007 	mov	r0, r7
    5af8:	e595101c 	ldr	r1, [r5, #28]
    5afc:	e3a03000 	mov	r3, #0
    5b00:	e1a0e00f 	mov	lr, pc
    5b04:	e12fff1c 	bx	r12
    5b08:	e3700001 	cmn	r0, #1
    5b0c:	0a000045 	beq	5c28 <__sflush_r+0x1a4>
    5b10:	e1d530bc 	ldrh	r3, [r5, #12]
    5b14:	e5951010 	ldr	r1, [r5, #16]
    5b18:	e3c33b02 	bic	r3, r3, #2048	; 0x800
    5b1c:	e3a02000 	mov	r2, #0
    5b20:	e3130a01 	tst	r3, #4096	; 0x1000
    5b24:	e1c530bc 	strh	r3, [r5, #12]
    5b28:	e8850006 	stm	r5, {r1, r2}
    5b2c:	1a000048 	bne	5c54 <__sflush_r+0x1d0>
    5b30:	e5951030 	ldr	r1, [r5, #48]	; 0x30
    5b34:	e3510000 	cmp	r1, #0
    5b38:	e5874000 	str	r4, [r7]
    5b3c:	0a00002a 	beq	5bec <__sflush_r+0x168>
    5b40:	e2853040 	add	r3, r5, #64	; 0x40
    5b44:	e1510003 	cmp	r1, r3
    5b48:	11a00007 	movne	r0, r7
    5b4c:	1b0000d3 	blne	5ea0 <_free_r>
    5b50:	e3a00000 	mov	r0, #0
    5b54:	e5850030 	str	r0, [r5, #48]	; 0x30
    5b58:	e8bd40f8 	pop	{r3, r4, r5, r6, r7, lr}
    5b5c:	e12fff1e 	bx	lr
    5b60:	e5916010 	ldr	r6, [r1, #16]
    5b64:	e3560000 	cmp	r6, #0
    5b68:	0a00001f 	beq	5bec <__sflush_r+0x168>
    5b6c:	e5914000 	ldr	r4, [r1]
    5b70:	e3130003 	tst	r3, #3
    5b74:	05913014 	ldreq	r3, [r1, #20]
    5b78:	e0664004 	rsb	r4, r6, r4
    5b7c:	13a03000 	movne	r3, #0
    5b80:	e3540000 	cmp	r4, #0
    5b84:	e5816000 	str	r6, [r1]
    5b88:	e5813008 	str	r3, [r1, #8]
    5b8c:	ca000003 	bgt	5ba0 <__sflush_r+0x11c>
    5b90:	ea000015 	b	5bec <__sflush_r+0x168>
    5b94:	e3540000 	cmp	r4, #0
    5b98:	e0866000 	add	r6, r6, r0
    5b9c:	da000012 	ble	5bec <__sflush_r+0x168>
    5ba0:	e1a03004 	mov	r3, r4
    5ba4:	e1a00007 	mov	r0, r7
    5ba8:	e595101c 	ldr	r1, [r5, #28]
    5bac:	e1a02006 	mov	r2, r6
    5bb0:	e595c024 	ldr	r12, [r5, #36]	; 0x24
    5bb4:	e1a0e00f 	mov	lr, pc
    5bb8:	e12fff1c 	bx	r12
    5bbc:	e3500000 	cmp	r0, #0
    5bc0:	e0604004 	rsb	r4, r0, r4
    5bc4:	cafffff2 	bgt	5b94 <__sflush_r+0x110>
    5bc8:	e1d530bc 	ldrh	r3, [r5, #12]
    5bcc:	e3833040 	orr	r3, r3, #64	; 0x40
    5bd0:	e1c530bc 	strh	r3, [r5, #12]
    5bd4:	e3e00000 	mvn	r0, #0
    5bd8:	e8bd40f8 	pop	{r3, r4, r5, r6, r7, lr}
    5bdc:	e12fff1e 	bx	lr
    5be0:	e591203c 	ldr	r2, [r1, #60]	; 0x3c
    5be4:	e3520000 	cmp	r2, #0
    5be8:	caffffb0 	bgt	5ab0 <__sflush_r+0x2c>
    5bec:	e3a00000 	mov	r0, #0
    5bf0:	e8bd40f8 	pop	{r3, r4, r5, r6, r7, lr}
    5bf4:	e12fff1e 	bx	lr
    5bf8:	e1a02006 	mov	r2, r6
    5bfc:	e1a00007 	mov	r0, r7
    5c00:	e595101c 	ldr	r1, [r5, #28]
    5c04:	e3a03001 	mov	r3, #1
    5c08:	e1a0e00f 	mov	lr, pc
    5c0c:	e12fff1c 	bx	r12
    5c10:	e3700001 	cmn	r0, #1
    5c14:	e1a02000 	mov	r2, r0
    5c18:	0a00001a 	beq	5c88 <__sflush_r+0x204>
    5c1c:	e1d530bc 	ldrh	r3, [r5, #12]
    5c20:	e595c028 	ldr	r12, [r5, #40]	; 0x28
    5c24:	eaffffaa 	b	5ad4 <__sflush_r+0x50>
    5c28:	e5973000 	ldr	r3, [r7]
    5c2c:	e3530000 	cmp	r3, #0
    5c30:	1a000009 	bne	5c5c <__sflush_r+0x1d8>
    5c34:	e1d520bc 	ldrh	r2, [r5, #12]
    5c38:	e5951010 	ldr	r1, [r5, #16]
    5c3c:	e3c22b02 	bic	r2, r2, #2048	; 0x800
    5c40:	e3120a01 	tst	r2, #4096	; 0x1000
    5c44:	e5853004 	str	r3, [r5, #4]
    5c48:	e1c520bc 	strh	r2, [r5, #12]
    5c4c:	e5851000 	str	r1, [r5]
    5c50:	0affffb6 	beq	5b30 <__sflush_r+0xac>
    5c54:	e5850050 	str	r0, [r5, #80]	; 0x50
    5c58:	eaffffb4 	b	5b30 <__sflush_r+0xac>
    5c5c:	e353001d 	cmp	r3, #29
    5c60:	0a000001 	beq	5c6c <__sflush_r+0x1e8>
    5c64:	e3530016 	cmp	r3, #22
    5c68:	1a000012 	bne	5cb8 <__sflush_r+0x234>
    5c6c:	e1d510bc 	ldrh	r1, [r5, #12]
    5c70:	e5952010 	ldr	r2, [r5, #16]
    5c74:	e3c11b02 	bic	r1, r1, #2048	; 0x800
    5c78:	e3a03000 	mov	r3, #0
    5c7c:	e1c510bc 	strh	r1, [r5, #12]
    5c80:	e885000c 	stm	r5, {r2, r3}
    5c84:	eaffffa9 	b	5b30 <__sflush_r+0xac>
    5c88:	e5973000 	ldr	r3, [r7]
    5c8c:	e3530000 	cmp	r3, #0
    5c90:	0affffe1 	beq	5c1c <__sflush_r+0x198>
    5c94:	e353001d 	cmp	r3, #29
    5c98:	13530016 	cmpne	r3, #22
    5c9c:	11d530bc 	ldrhne	r3, [r5, #12]
    5ca0:	13833040 	orrne	r3, r3, #64	; 0x40
    5ca4:	05874000 	streq	r4, [r7]
    5ca8:	01a00006 	moveq	r0, r6
    5cac:	11a00002 	movne	r0, r2
    5cb0:	11c530bc 	strhne	r3, [r5, #12]
    5cb4:	eaffffc7 	b	5bd8 <__sflush_r+0x154>
    5cb8:	e1d530bc 	ldrh	r3, [r5, #12]
    5cbc:	e3833040 	orr	r3, r3, #64	; 0x40
    5cc0:	e1c530bc 	strh	r3, [r5, #12]
    5cc4:	eaffffc3 	b	5bd8 <__sflush_r+0x154>

00005cc8 <_fflush_r>:
    5cc8:	e92d4010 	push	{r4, lr}
    5ccc:	e2504000 	subs	r4, r0, #0
    5cd0:	e24dd008 	sub	sp, sp, #8
    5cd4:	0a000002 	beq	5ce4 <_fflush_r+0x1c>
    5cd8:	e5943038 	ldr	r3, [r4, #56]	; 0x38
    5cdc:	e3530000 	cmp	r3, #0
    5ce0:	0a000009 	beq	5d0c <_fflush_r+0x44>
    5ce4:	e1d100fc 	ldrsh	r0, [r1, #12]
    5ce8:	e3500000 	cmp	r0, #0
    5cec:	1a000002 	bne	5cfc <_fflush_r+0x34>
    5cf0:	e28dd008 	add	sp, sp, #8
    5cf4:	e8bd4010 	pop	{r4, lr}
    5cf8:	e12fff1e 	bx	lr
    5cfc:	e1a00004 	mov	r0, r4
    5d00:	e28dd008 	add	sp, sp, #8
    5d04:	e8bd4010 	pop	{r4, lr}
    5d08:	eaffff5d 	b	5a84 <__sflush_r>
    5d0c:	e58d1004 	str	r1, [sp, #4]
    5d10:	ebffea89 	bl	73c <__sinit>
    5d14:	e59d1004 	ldr	r1, [sp, #4]
    5d18:	eafffff1 	b	5ce4 <_fflush_r+0x1c>

00005d1c <fflush>:
    5d1c:	e2501000 	subs	r1, r0, #0
    5d20:	e92d4008 	push	{r3, lr}
    5d24:	159f3020 	ldrne	r3, [pc, #32]	; 5d4c <fflush+0x30>
    5d28:	15930000 	ldrne	r0, [r3]
    5d2c:	18bd4008 	popne	{r3, lr}
    5d30:	1affffe4 	bne	5cc8 <_fflush_r>
    5d34:	e59f3014 	ldr	r3, [pc, #20]	; 5d50 <fflush+0x34>
    5d38:	e59f1014 	ldr	r1, [pc, #20]	; 5d54 <fflush+0x38>
    5d3c:	e5930000 	ldr	r0, [r3]
    5d40:	ebffeb4c 	bl	a78 <_fwalk_reent>
    5d44:	e8bd4008 	pop	{r3, lr}
    5d48:	e12fff1e 	bx	lr
    5d4c:	0000bb38 	.word	0x0000bb38
    5d50:	0000b804 	.word	0x0000b804
    5d54:	00005cc8 	.word	0x00005cc8

00005d58 <__libc_fini_array>:
    5d58:	e92d4038 	push	{r3, r4, r5, lr}
    5d5c:	e59f5034 	ldr	r5, [pc, #52]	; 5d98 <__libc_fini_array+0x40>
    5d60:	e59f4034 	ldr	r4, [pc, #52]	; 5d9c <__libc_fini_array+0x44>
    5d64:	e0654004 	rsb	r4, r5, r4
    5d68:	e1b04144 	asrs	r4, r4, #2
    5d6c:	10855104 	addne	r5, r5, r4, lsl #2
    5d70:	0a000005 	beq	5d8c <__libc_fini_array+0x34>
    5d74:	e2444001 	sub	r4, r4, #1
    5d78:	e5353004 	ldr	r3, [r5, #-4]!
    5d7c:	e1a0e00f 	mov	lr, pc
    5d80:	e12fff13 	bx	r3
    5d84:	e3540000 	cmp	r4, #0
    5d88:	1afffff9 	bne	5d74 <__libc_fini_array+0x1c>
    5d8c:	eb00175b 	bl	bb00 <__libc_fini>
    5d90:	e8bd4038 	pop	{r3, r4, r5, lr}
    5d94:	e12fff1e 	bx	lr
    5d98:	0000bb18 	.word	0x0000bb18
    5d9c:	0000bb1c 	.word	0x0000bb1c

00005da0 <_malloc_trim_r>:
    5da0:	e92d40f8 	push	{r3, r4, r5, r6, r7, lr}
    5da4:	e59f50e8 	ldr	r5, [pc, #232]	; 5e94 <_malloc_trim_r+0xf4>
    5da8:	e1a07001 	mov	r7, r1
    5dac:	e1a04000 	mov	r4, r0
    5db0:	ebffeddc 	bl	1528 <__malloc_lock>
    5db4:	e5953008 	ldr	r3, [r5, #8]
    5db8:	e5936004 	ldr	r6, [r3, #4]
    5dbc:	e3c66003 	bic	r6, r6, #3
    5dc0:	e0677006 	rsb	r7, r7, r6
    5dc4:	e2877efe 	add	r7, r7, #4064	; 0xfe0
    5dc8:	e287700f 	add	r7, r7, #15
    5dcc:	e1a07627 	lsr	r7, r7, #12
    5dd0:	e2477001 	sub	r7, r7, #1
    5dd4:	e1a07607 	lsl	r7, r7, #12
    5dd8:	e3570a01 	cmp	r7, #4096	; 0x1000
    5ddc:	ba000006 	blt	5dfc <_malloc_trim_r+0x5c>
    5de0:	e1a00004 	mov	r0, r4
    5de4:	e3a01000 	mov	r1, #0
    5de8:	ebffee9a 	bl	1858 <_sbrk_r>
    5dec:	e5953008 	ldr	r3, [r5, #8]
    5df0:	e0833006 	add	r3, r3, r6
    5df4:	e1500003 	cmp	r0, r3
    5df8:	0a000004 	beq	5e10 <_malloc_trim_r+0x70>
    5dfc:	e1a00004 	mov	r0, r4
    5e00:	ebffedc9 	bl	152c <__malloc_unlock>
    5e04:	e3a00000 	mov	r0, #0
    5e08:	e8bd40f8 	pop	{r3, r4, r5, r6, r7, lr}
    5e0c:	e12fff1e 	bx	lr
    5e10:	e1a00004 	mov	r0, r4
    5e14:	e2671000 	rsb	r1, r7, #0
    5e18:	ebffee8e 	bl	1858 <_sbrk_r>
    5e1c:	e3700001 	cmn	r0, #1
    5e20:	0a00000c 	beq	5e58 <_malloc_trim_r+0xb8>
    5e24:	e59f306c 	ldr	r3, [pc, #108]	; 5e98 <_malloc_trim_r+0xf8>
    5e28:	e5951008 	ldr	r1, [r5, #8]
    5e2c:	e5932000 	ldr	r2, [r3]
    5e30:	e0676006 	rsb	r6, r7, r6
    5e34:	e3866001 	orr	r6, r6, #1
    5e38:	e1a00004 	mov	r0, r4
    5e3c:	e0677002 	rsb	r7, r7, r2
    5e40:	e5816004 	str	r6, [r1, #4]
    5e44:	e5837000 	str	r7, [r3]
    5e48:	ebffedb7 	bl	152c <__malloc_unlock>
    5e4c:	e3a00001 	mov	r0, #1
    5e50:	e8bd40f8 	pop	{r3, r4, r5, r6, r7, lr}
    5e54:	e12fff1e 	bx	lr
    5e58:	e1a00004 	mov	r0, r4
    5e5c:	e3a01000 	mov	r1, #0
    5e60:	ebffee7c 	bl	1858 <_sbrk_r>
    5e64:	e5953008 	ldr	r3, [r5, #8]
    5e68:	e0632000 	rsb	r2, r3, r0
    5e6c:	e352000f 	cmp	r2, #15
    5e70:	daffffe1 	ble	5dfc <_malloc_trim_r+0x5c>
    5e74:	e59f1020 	ldr	r1, [pc, #32]	; 5e9c <_malloc_trim_r+0xfc>
    5e78:	e591c000 	ldr	r12, [r1]
    5e7c:	e59f1014 	ldr	r1, [pc, #20]	; 5e98 <_malloc_trim_r+0xf8>
    5e80:	e3822001 	orr	r2, r2, #1
    5e84:	e06c0000 	rsb	r0, r12, r0
    5e88:	e5832004 	str	r2, [r3, #4]
    5e8c:	e5810000 	str	r0, [r1]
    5e90:	eaffffd9 	b	5dfc <_malloc_trim_r+0x5c>
    5e94:	0000bf68 	.word	0x0000bf68
    5e98:	0000c428 	.word	0x0000c428
    5e9c:	0000c370 	.word	0x0000c370

00005ea0 <_free_r>:
    5ea0:	e92d40f8 	push	{r3, r4, r5, r6, r7, lr}
    5ea4:	e2514000 	subs	r4, r1, #0
    5ea8:	e1a06000 	mov	r6, r0
    5eac:	0a000046 	beq	5fcc <_free_r+0x12c>
    5eb0:	ebffed9c 	bl	1528 <__malloc_lock>
    5eb4:	e514e004 	ldr	lr, [r4, #-4]
    5eb8:	e59f1238 	ldr	r1, [pc, #568]	; 60f8 <_free_r+0x258>
    5ebc:	e3ce3001 	bic	r3, lr, #1
    5ec0:	e244c008 	sub	r12, r4, #8
    5ec4:	e08c2003 	add	r2, r12, r3
    5ec8:	e5910008 	ldr	r0, [r1, #8]
    5ecc:	e5925004 	ldr	r5, [r2, #4]
    5ed0:	e1500002 	cmp	r0, r2
    5ed4:	e3c55003 	bic	r5, r5, #3
    5ed8:	0a00004a 	beq	6008 <_free_r+0x168>
    5edc:	e21ee001 	ands	lr, lr, #1
    5ee0:	e5825004 	str	r5, [r2, #4]
    5ee4:	13a0e000 	movne	lr, #0
    5ee8:	1a000009 	bne	5f14 <_free_r+0x74>
    5eec:	e5144008 	ldr	r4, [r4, #-8]
    5ef0:	e064c00c 	rsb	r12, r4, r12
    5ef4:	e59c0008 	ldr	r0, [r12, #8]
    5ef8:	e2817008 	add	r7, r1, #8
    5efc:	e1500007 	cmp	r0, r7
    5f00:	e0833004 	add	r3, r3, r4
    5f04:	159c400c 	ldrne	r4, [r12, #12]
    5f08:	1580400c 	strne	r4, [r0, #12]
    5f0c:	15840008 	strne	r0, [r4, #8]
    5f10:	03a0e001 	moveq	lr, #1
    5f14:	e0820005 	add	r0, r2, r5
    5f18:	e5900004 	ldr	r0, [r0, #4]
    5f1c:	e3100001 	tst	r0, #1
    5f20:	1a000009 	bne	5f4c <_free_r+0xac>
    5f24:	e35e0000 	cmp	lr, #0
    5f28:	e5920008 	ldr	r0, [r2, #8]
    5f2c:	e0833005 	add	r3, r3, r5
    5f30:	1a000002 	bne	5f40 <_free_r+0xa0>
    5f34:	e59f41c0 	ldr	r4, [pc, #448]	; 60fc <_free_r+0x25c>
    5f38:	e1500004 	cmp	r0, r4
    5f3c:	0a000047 	beq	6060 <_free_r+0x1c0>
    5f40:	e592200c 	ldr	r2, [r2, #12]
    5f44:	e580200c 	str	r2, [r0, #12]
    5f48:	e5820008 	str	r0, [r2, #8]
    5f4c:	e3832001 	orr	r2, r3, #1
    5f50:	e35e0000 	cmp	lr, #0
    5f54:	e58c2004 	str	r2, [r12, #4]
    5f58:	e78c3003 	str	r3, [r12, r3]
    5f5c:	1a000018 	bne	5fc4 <_free_r+0x124>
    5f60:	e3530c02 	cmp	r3, #512	; 0x200
    5f64:	3a00001a 	bcc	5fd4 <_free_r+0x134>
    5f68:	e1a024a3 	lsr	r2, r3, #9
    5f6c:	e3520004 	cmp	r2, #4
    5f70:	8a000042 	bhi	6080 <_free_r+0x1e0>
    5f74:	e1a0e323 	lsr	lr, r3, #6
    5f78:	e28ee038 	add	lr, lr, #56	; 0x38
    5f7c:	e1a0008e 	lsl	r0, lr, #1
    5f80:	e0810100 	add	r0, r1, r0, lsl #2
    5f84:	e5902008 	ldr	r2, [r0, #8]
    5f88:	e1520000 	cmp	r2, r0
    5f8c:	e59f1164 	ldr	r1, [pc, #356]	; 60f8 <_free_r+0x258>
    5f90:	0a000044 	beq	60a8 <_free_r+0x208>
    5f94:	e5921004 	ldr	r1, [r2, #4]
    5f98:	e3c11003 	bic	r1, r1, #3
    5f9c:	e1530001 	cmp	r3, r1
    5fa0:	2a000002 	bcs	5fb0 <_free_r+0x110>
    5fa4:	e5922008 	ldr	r2, [r2, #8]
    5fa8:	e1500002 	cmp	r0, r2
    5fac:	1afffff8 	bne	5f94 <_free_r+0xf4>
    5fb0:	e592300c 	ldr	r3, [r2, #12]
    5fb4:	e58c300c 	str	r3, [r12, #12]
    5fb8:	e58c2008 	str	r2, [r12, #8]
    5fbc:	e583c008 	str	r12, [r3, #8]
    5fc0:	e582c00c 	str	r12, [r2, #12]
    5fc4:	e1a00006 	mov	r0, r6
    5fc8:	ebffed57 	bl	152c <__malloc_unlock>
    5fcc:	e8bd40f8 	pop	{r3, r4, r5, r6, r7, lr}
    5fd0:	e12fff1e 	bx	lr
    5fd4:	e5912004 	ldr	r2, [r1, #4]
    5fd8:	e1a031a3 	lsr	r3, r3, #3
    5fdc:	e1a00143 	asr	r0, r3, #2
    5fe0:	e3a0e001 	mov	lr, #1
    5fe4:	e182001e 	orr	r0, r2, lr, lsl r0
    5fe8:	e0813183 	add	r3, r1, r3, lsl #3
    5fec:	e5932008 	ldr	r2, [r3, #8]
    5ff0:	e5810004 	str	r0, [r1, #4]
    5ff4:	e58c2008 	str	r2, [r12, #8]
    5ff8:	e58c300c 	str	r3, [r12, #12]
    5ffc:	e583c008 	str	r12, [r3, #8]
    6000:	e582c00c 	str	r12, [r2, #12]
    6004:	eaffffee 	b	5fc4 <_free_r+0x124>
    6008:	e31e0001 	tst	lr, #1
    600c:	e0853003 	add	r3, r5, r3
    6010:	1a000006 	bne	6030 <_free_r+0x190>
    6014:	e5142008 	ldr	r2, [r4, #-8]
    6018:	e062c00c 	rsb	r12, r2, r12
    601c:	e59c000c 	ldr	r0, [r12, #12]
    6020:	e59ce008 	ldr	lr, [r12, #8]
    6024:	e58e000c 	str	r0, [lr, #12]
    6028:	e580e008 	str	lr, [r0, #8]
    602c:	e0833002 	add	r3, r3, r2
    6030:	e59f20c8 	ldr	r2, [pc, #200]	; 6100 <_free_r+0x260>
    6034:	e5920000 	ldr	r0, [r2]
    6038:	e3832001 	orr	r2, r3, #1
    603c:	e1530000 	cmp	r3, r0
    6040:	e58c2004 	str	r2, [r12, #4]
    6044:	e581c008 	str	r12, [r1, #8]
    6048:	3affffdd 	bcc	5fc4 <_free_r+0x124>
    604c:	e59f30b0 	ldr	r3, [pc, #176]	; 6104 <_free_r+0x264>
    6050:	e1a00006 	mov	r0, r6
    6054:	e5931000 	ldr	r1, [r3]
    6058:	ebffff50 	bl	5da0 <_malloc_trim_r>
    605c:	eaffffd8 	b	5fc4 <_free_r+0x124>
    6060:	e3832001 	orr	r2, r3, #1
    6064:	e581c014 	str	r12, [r1, #20]
    6068:	e581c010 	str	r12, [r1, #16]
    606c:	e58c000c 	str	r0, [r12, #12]
    6070:	e58c0008 	str	r0, [r12, #8]
    6074:	e58c2004 	str	r2, [r12, #4]
    6078:	e78c3003 	str	r3, [r12, r3]
    607c:	eaffffd0 	b	5fc4 <_free_r+0x124>
    6080:	e3520014 	cmp	r2, #20
    6084:	9282e05b 	addls	lr, r2, #91	; 0x5b
    6088:	91a0008e 	lslls	r0, lr, #1
    608c:	9affffbb 	bls	5f80 <_free_r+0xe0>
    6090:	e3520054 	cmp	r2, #84	; 0x54
    6094:	8a00000a 	bhi	60c4 <_free_r+0x224>
    6098:	e1a0e623 	lsr	lr, r3, #12
    609c:	e28ee06e 	add	lr, lr, #110	; 0x6e
    60a0:	e1a0008e 	lsl	r0, lr, #1
